
dji_linker.cpp.o：     文件格式 elf64-x86-64

Contents of section .group:
 0000 01000000 10000000                    ........        
Contents of section .text:
 0000 554889e5 48897df8 89f08845 f4488b45  UH..H.}....E.H.E
 0010 f80fb655 f4881048 8b45f8c6 40010048  ...U...H.E..@..H
 0020 8b45f8c6 40020090 5dc35548 89e54883  .E..@...].UH..H.
 0030 ec104889 7df8488b 45f84889 c7e80000  ..H.}.H.E.H.....
 0040 000090c9 c3905548 89e54883 ec204889  ......UH..H.. H.
 0050 7de8e800 00000089 45fc837d fc00743a  }.......E..}..t:
 0060 8b45fc41 89c141b8 38000000 488d0d00  .E.A..A.8...H...
 0070 00000048 8d150000 0000be02 00000048  ...H...........H
 0080 8d3d0000 0000b800 000000e8 00000000  .=..............
 0090 b8000000 00e98f00 0000e800 00000089  ................
 00a0 45fc837d fc007437 8b45fc41 89c141b8  E..}..t7.E.A..A.
 00b0 3e000000 488d0d00 00000048 8d150000  >...H......H....
 00c0 0000be02 00000048 8d3d0000 0000b800  .......H.=......
 00d0 000000e8 00000000 b8000000 00eb4ae8  ..............J.
 00e0 00000000 8945fc83 7dfc0074 378b45fc  .....E..}..t7.E.
 00f0 4189c141 b8440000 00488d0d 00000000  A..A.D...H......
 0100 488d1500 000000be 02000000 488d3d00  H...........H.=.
 0110 000000b8 00000000 e8000000 00b80000  ................
 0120 0000eb05 b8010000 00c9c390 554889e5  ............UH..
 0130 4883ec10 48897df8 e8000000 004889c7  H...H.}......H..
 0140 e8000000 00e80000 0000e800 000000b8  ................
 0150 01000000 c9c35548 89e54889 7df8488b  ......UH..H.}.H.
 0160 45f80fb6 40015dc3 554889e5 48897df8  E...@.].UH..H.}.
 0170 488b45f8 0fb64002 5dc35548 89e54883  H.E...@.].UH..H.
 0180 ec304889 7de84889 75e08955 dc894dd8  .0H.}.H.u..U..M.
 0190 8b55d88b 4ddc488b 45e089ce 4889c7e8  .U..M.H.E...H...
 01a0 00000000 8945fc83 7dfc000f 94c08845  .....E..}......E
 01b0 fb817dd8 00010100 750b488b 45e80fb6  ..}.....u.H.E...
 01c0 55fb8850 01817dd8 00020100 750b488b  U..P..}.....u.H.
 01d0 45e80fb6 55fb8850 020fb645 fbc9c390  E...U..P...E....
 01e0 554889e5 4883ec30 48897de8 89c84489  UH..H..0H.}...D.
 01f0 cf89f166 894de466 8955e066 8945dc44  ...f.M.f.U.f.E.D
 0200 89c06689 45d889f8 668945d4 0fb77dd4  ..f.E...f.E...}.
 0210 0fb74dd8 0fb755dc 0fb775e0 0fb745e4  ..M...U...u...E.
 0220 448b4d10 4189f889 c7e80000 00008945  D.M.A..........E
 0230 fc837dfc 000f94c0 c9c35548 89e55348  ..}.......UH..SH
 0240 83ec3848 897de848 8975e048 8955d848  ..8H.}.H.u.H.U.H
 0250 894dd04c 8945c844 894dc48b 45106689  .M.L.E.D.M..E.f.
 0260 45c00fb7 5dc0e800 00000049 89c28b7d  E...]......I...}
 0270 c4488b75 c8488b4d d0488b55 d8488b45  .H.u.H.M.H.U.H.E
 0280 e04883ec 08534189 f94989f0 4889c64c  .H...SA..I..H..L
 0290 89d7e800 00000048 83c41090 488b5df8  .......H....H.].
 02a0 c9c35548 89e55348 83ec3848 897de848  ..UH..SH..8H.}.H
 02b0 8975e048 8955d848 894dd04c 8945c844  .u.H.U.H.M.L.E.D
 02c0 894dc48b 45106689 45c00fb7 5dc0e800  .M..E.f.E...]...
 02d0 00000049 89c28b7d c4488b75 c8488b4d  ...I...}.H.u.H.M
 02e0 d0488b55 d8488b45 e04883ec 08534189  .H.U.H.E.H...SA.
 02f0 f94989f0 4889c64c 89d7e800 00000048  .I..H..L.......H
 0300 83c41048 8b5df8c9 c3905548 89e54883  ...H.]....UH..H.
 0310 ec104889 7df84889 75f0488b 45f04889  ..H.}.H.u.H.E.H.
 0320 c7e80000 000090c9 c3905548 89e54889  ..........UH..H.
 0330 7df889f0 8845f448 8b45f80f b655f488  }....E.H.E...U..
 0340 10905dc3 554889e5 48897df8 488b45f8  ..].UH..H.}.H.E.
 0350 0fb6005d c3905548 89e54883 ec204889  ...]..UH..H.. H.
 0360 7df84889 75f04889 55e8488b 55e8488b  }.H.u.H.U.H.U.H.
 0370 45f04889 d64889c7 e8000000 00c9c390  E.H..H..........
 0380 554889e5 4883ec20 48897df8 488975f0  UH..H.. H.}.H.u.
 0390 488955e8 89c86689 45e40fb7 55e4488b  H.U...f.E...U.H.
 03a0 4de8488b 45f04889 ce4889c7 e8000000  M.H.E.H..H......
 03b0 00c9c390 554889e5 4883ec20 48897de8  ....UH..H.. H.}.
 03c0 488975e0 e8000000 004889c2 488b45e0  H.u......H..H.E.
 03d0 4889c648 89d7e800 00000089 45fc837d  H..H........E..}
 03e0 fc000f94 c0c9c390 554889e5 4883ec20  ........UH..H.. 
 03f0 48897de8 e8000000 008945fc 837dfc00  H.}.......E..}..
 0400 0f94c0c9 c3905548 89e54883 ec204889  ......UH..H.. H.
 0410 7de8e800 00000089 45fc837d fc000f94  }.......E..}....
 0420 c0c9c390 554889e5 4883ec20 48897de8  ....UH..H.. H.}.
 0430 e8000000 008945fc 837dfc00 0f94c0c9  ......E..}......
 0440 c3905548 89e54883 ec204889 7de8e800  ..UH..H.. H.}...
 0450 00000089 45fc837d fc000f94 c0c9c3    ....E..}....... 
Contents of section .gcc_except_table:
 0000 ffff0100                             ....            
Contents of section .rodata:
 0000 5b576172 6e5d2d5b 25733a25 645d526f  [Warn]-[%s:%d]Ro
 0010 6f742054 61736b20 496e6974 20457272  ot Task Init Err
 0020 6f72212c 20457272 6f722043 6f646520  or!, Error Code 
 0030 3a202564 0a00444a 495f4c49 4e4b4552  : %d..DJI_LINKER
 0040 00000000 00000000 5b576172 6e5d2d5b  ........[Warn]-[
 0050 25733a25 645d4368 616e6e65 6c205461  %s:%d]Channel Ta
 0060 736b2049 6e697420 4572726f 72212c20  sk Init Error!, 
 0070 4572726f 7220436f 6465203a 2025640a  Error Code : %d.
 0080 00000000 00000000 5b576172 6e5d2d5b  ........[Warn]-[
 0090 25733a25 645d436f 6d6d616e 64205461  %s:%d]Command Ta
 00a0 736b2049 6e697420 4572726f 72210069  sk Init Error!.i
 00b0 6e697400                             nit.            
Contents of section .debug_info:
 0000 06150000 04000000 00000801 00000000  ................
 0010 04000000 00000000 00000000 00000000  ................
 0020 005f0400 00000000 00000000 00020108  ._..............
 0030 00000000 02020700 00000002 04070000  ................
 0040 00000208 07000000 00020106 00000000  ................
 0050 03000000 0002252d 00000002 02050000  ......%-........
 0060 00000300 00000002 27340000 00040405  ........'4......
 0070 696e7400 056d0000 00030000 00000229  int..m.........)
 0080 3b000000 02080500 00000003 00000000  ;...............
 0090 028c8400 00000300 00000002 8d840000  ................
 00a0 00060807 08a90000 00020106 00000000  ................
 00b0 05a90000 00030000 00000318 50000000  ............P...
 00c0 05b50000 00030000 00000319 62000000  ............b...
 00d0 03000000 00031a79 00000003 00000000  .......y........
 00e0 04d84200 00000708 b0000000 05e60000  ..B.............
 00f0 00020805 00000000 02100400 00000008  ................
 0100 00000000 02080400 00000002 04040000  ................
 0110 00000907 043b0000 00053100 00000060  .....;....1....`
 0120 0100000a 00000000 000a0000 0000010a  ................
 0130 00000000 020a0000 0000030a 00000000  ................
 0140 040a0000 0000050a 00000000 060a0000  ................
 0150 0000070a 00000000 080a0000 0000ff00  ................
 0160 03000000 00053c12 01000009 07043b00  ......<.......;.
 0170 00000641 00000000 95010000 0a000000  ...A............
 0180 00010a00 00000002 0a000000 00030a00  ................
 0190 00000004 00030000 00000646 6b010000  ...........Fk...
 01a0 0b000000 001c0649 49020000 0c000000  .......II.......
 01b0 00064fb5 00000000 0c000000 000655b5  ..O...........U.
 01c0 00000001 0c000000 00065bb5 00000002  ..........[.....
 01d0 0c000000 000660b5 00000003 0c000000  ......`.........
 01e0 000665b5 00000004 0c000000 00066ab5  ..e...........j.
 01f0 00000005 0c000000 00066fb5 00000006  ..........o.....
 0200 0c000000 000675b5 00000007 0c000000  ......u.........
 0210 00067bc5 00000008 0c000000 000680d0  ..{.............
 0220 0000000c 0c000000 000686d0 00000010  ................
 0230 0c000000 00068cd0 00000014 0c000000  ................
 0240 00069295 01000018 00030000 00000693  ................
 0250 a0010000 05490200 000708b5 00000002  .....I..........
 0260 08070000 00000b00 00000010 07d3a902  ................
 0270 00000d10 07d69c02 00000e00 00000007  ................
 0280 d7ae0200 000e0000 000007d8 be020000  ................
 0290 0e000000 0007d9ce 02000000 0c000000  ................
 02a0 0007da72 02000000 00056602 00000fb5  ...r......f.....
 02b0 000000be 02000010 42000000 0f000fc5  ........B.......
 02c0 000000ce 02000010 42000000 07000fd0  ........B.......
 02d0 000000de 02000010 42000000 03001100  ........B.......
 02e0 00000007 e3a90200 00110000 000007e4  ................
 02f0 a9020000 03000000 000837a1 00000007  ..........7.....
 0300 08c00000 00090704 3b000000 093d0000  ........;....=..
 0310 00004403 00001200 000000ff ffffff12  ..D.............
 0320 00000000 ffff00ff 12000000 0000ffff  ................
 0330 ff120000 00000000 ffff1200 00000000  ................
 0340 0000ff00 03000000 00094305 0300000b  ..........C.....
 0350 00000000 180947b0 0300000c 00000000  ......G.........
 0360 0948b500 0000000c 00000000 0949b500  .H...........I..
 0370 0000010c 00000000 094ab500 0000020c  .........J......
 0380 00000000 094bb500 0000030c 00000000  .....K..........
 0390 094c4403 0000040c 00000000 094da100  .LD..........M..
 03a0 0000080c 00000000 09504104 00001000  .........PA.....
 03b0 13600100 00ce0300 0014ce03 0000143b  .`.............;
 03c0 04000014 ff020000 14a10000 00000708  ................
 03d0 d4030000 15000000 00388e09 6a3b0400  .........8..j;..
 03e0 000c0000 0000096b 7b050000 000c0000  .......k{.......
 03f0 0000096c 36050000 20160000 0000096d  ...l6... ......m
 0400 86050000 20041600 00000009 6ec50000  .... .......n...
 0410 00200616 00000000 096ff402 00002806  . .......o....(.
 0420 16000000 000970f4 02000030 06160000  ......p....0....
 0430 00000971 96050000 38060007 08540200  ...q....8....T..
 0440 000708b0 03000003 00000000 09514f03  .............QO.
 0450 00001710 09530000 00008304 00000c00  .....S..........
 0460 00000009 54830400 00000c00 00000009  ....T...........
 0470 55950100 00080c00 00000009 56c50000  U...........V...
 0480 000c0007 08470400 00030000 00000957  .....G.........W
 0490 52040000 03000000 0009599f 04000007  R.........Y.....
 04a0 08a50400 0018bf04 0000143b 04000014  ...........;....
 04b0 ff020000 14a10000 00146001 00000019  ..........`.....
 04c0 4004095d 00000000 2f050000 0c000000  @..]..../.......
 04d0 00095e2f 05000000 0c000000 00095fd0  ..^/.........._.
 04e0 00000004 0c000000 000960d0 00000008  ..........`.....
 04f0 0c000000 000961c5 0000000c 0c000000  ......a.........
 0500 00096249 02000010 0c000000 00096336  ..bI..........c6
 0510 0500002c 16000000 00096494 04000030  ...,......d....0
 0520 04160000 00000965 a1000000 38040002  .......e....8...
 0530 01020000 00000fb5 00000047 0500001a  ...........G....
 0540 42000000 ff030003 00000000 0966bf04  B............f..
 0550 00000b00 00000020 09686b05 00000c00  ....... .hk.....
 0560 00000009 686b0500 0000000f b5000000  ....hk..........
 0570 7b050000 10420000 001f0003 00000000  {....B..........
 0580 09685205 00000f89 04000096 05000010  .hR.............
 0590 42000000 1f000f47 050000a6 05000010  B......G........
 05a0 42000000 1f000907 043b0000 000a3400  B........;....4.
 05b0 000000e5 05000012 00000000 00010100  ................
 05c0 12000000 00000201 00120000 00000000  ................
 05d0 03001200 00000000 01020012 00000000  ................
 05e0 00020200 00030000 00000a3a a6050000  ...........:....
 05f0 1b444a49 000b2734 0900001c 00000000  .DJI..'4........
 0600 0b291d00 00000003 0b2c0c00 0000000b  .).......,......
 0610 62b50000 00000c00 0000000b 632f0500  b...........c/..
 0620 00010c00 0000000b 642f0500 00021e00  ........d/......
 0630 0000000b 2f000000 00014206 00004d06  ..../.....B...M.
 0640 00001f34 09000014 b5000000 001e0000  ...4............
 0650 00000b30 00000000 01610600 006c0600  ...0.....a...l..
 0660 001f3409 00001f6d 00000000 20000000  ..4....m.... ...
 0670 000b3200 0000002f 05000001 84060000  ..2..../........
 0680 8a060000 1f340900 00002000 0000000b  .....4.... .....
 0690 34000000 002f0500 0001a206 0000a806  4..../..........
 06a0 00001f34 09000000 20000000 000b3600  ...4.... .....6.
 06b0 0000002f 05000001 c0060000 d5060000  .../............
 06c0 1f340900 0014e600 000014d0 00000014  .4..............
 06d0 e5050000 00200000 00000b38 00000000  ..... .....8....
 06e0 2f050000 01ed0600 00f30600 001f3409  /.............4.
 06f0 00000020 00000000 0b3a0000 00002f05  ... .....:..../.
 0700 0000010b 07000011 0700001f 34090000  ............4...
 0710 00200000 00000b3d 00000000 2f050000  . .....=..../...
 0720 01290700 004d0700 001f3409 000014c5  .)...M....4.....
 0730 00000014 c5000000 14c50000 0014c500  ................
 0740 000014c5 00000014 e5050000 001e0000  ................
 0750 00000b41 00000000 01610700 006c0700  ...A.....a...l..
 0760 001f3409 000014b5 00000000 20000000  ..4......... ...
 0770 000b4300 000000b5 00000001 84070000  ..C.............
 0780 8a070000 1f340900 00001e00 0000000b  .....4..........
 0790 45000000 00019e07 0000a907 00001f34  E..............4
 07a0 09000014 e6000000 001e0000 00000b47  ...............G
 07b0 00000000 01bd0700 00e10700 001f3409  ..............4.
 07c0 0000143f 09000014 ff020000 14940400  ...?............
 07d0 0014a100 000014d0 00000014 c5000000  ................
 07e0 00200000 00000b4c 00000000 60010000  . .....L....`...
 07f0 01f90700 001d0800 001f3409 0000143f  ..........4....?
 0800 09000014 ff020000 143f0900 00145902  .........?....Y.
 0810 000014d0 00000014 c5000000 00200000  ............. ..
 0820 00000b51 00000000 60010000 01350800  ...Q....`....5..
 0830 004a0800 001f3409 0000143b 04000014  .J....4....;....
 0840 ff020000 14c50000 00002000 0000000b  .......... .....
 0850 53000000 00600100 00016208 00007208  S....`....b...r.
 0860 00001f34 09000014 3f090000 14ff0200  ...4....?.......
 0870 00002000 0000000b 55000000 00490200  .. .....U....I..
 0880 00018a08 00009a08 00001f34 09000014  ...........4....
 0890 49020000 14d00000 00002000 0000000b  I......... .....
 08a0 57000000 002f0500 0001b208 0000bd08  W..../..........
 08b0 00001f34 09000014 45090000 00200000  ...4....E.... ..
 08c0 00000b59 00000000 2f050000 01d50800  ...Y..../.......
 08d0 00db0800 001f3409 00000020 00000000  ......4.... ....
 08e0 0b5b0000 00002f05 000001f3 080000f9  .[..../.........
 08f0 0800001f 34090000 00200000 00000b5d  ....4.... .....]
 0900 00000000 2f050000 01110900 00170900  ..../...........
 0910 001f3409 00000021 00000000 0b5f0000  ..4....!....._..
 0920 00002f05 0000012b 0900001f 34090000  ../....+....4...
 0930 00000000 07080206 00000534 09000007  ...........4....
 0940 08490200 00070889 0400001b 73746400  .I..........std.
 0950 0c00a60b 00002200 0000000e fd230efd  ......"......#..
 0960 56090000 24000000 000d3435 0b000025  V...$.....45...%
 0970 00000000 080d4f28 0b00000c 00000000  ......O(........
 0980 0d51a100 00000026 00000000 0d530000  .Q.....&.....S..
 0990 00009a09 0000a509 00001fc2 0b000014  ................
 09a0 a1000000 00270000 00000d55 00000000  .....'.....U....
 09b0 b8090000 be090000 1fc20b00 00002700  ..............'.
 09c0 0000000d 56000000 00d10900 00d70900  ....V...........
 09d0 001fc20b 00000028 00000000 0d580000  .......(.....X..
 09e0 0000a100 0000ee09 0000f409 00001fc8  ................
 09f0 0b000000 1e000000 000d6000 00000001  ..........`.....
 0a00 080a0000 0e0a0000 1fc20b00 00001e00  ................
 0a10 0000000d 62000000 0001220a 00002d0a  ....b....."...-.
 0a20 00001fc2 0b000014 ce0b0000 001e0000  ................
 0a30 00000d65 00000000 01410a00 004c0a00  ...e.....A...L..
 0a40 001fc20b 00001451 0b000000 1e000000  .......Q........
 0a50 000d6900 00000001 600a0000 6b0a0000  ..i.....`...k...
 0a60 1fc20b00 0014d40b 00000020 00000000  ........... ....
 0a70 0d760000 0000da0b 00000183 0a00008e  .v..............
 0a80 0a00001f c20b0000 14ce0b00 00002000  .............. .
 0a90 0000000d 7a000000 00da0b00 0001a60a  ....z...........
 0aa0 0000b10a 00001fc2 0b000014 d40b0000  ................
 0ab0 001e0000 00000d81 00000000 01c50a00  ................
 0ac0 00d00a00 001fc20b 00001f6d 00000000  ...........m....
 0ad0 1e000000 000d8400 00000001 e40a0000  ................
 0ae0 ef0a0000 1fc20b00 0014da0b 00000029  ...............)
 0af0 00000000 0d900000 00002f05 00000107  ........../.....
 0b00 0b00000d 0b00001f c80b0000 00210000  .............!..
 0b10 00000d99 00000000 e00b0000 01210b00  .............!..
 0b20 001fc80b 00000000 056f0900 002a0d49  .........o...*.I
 0b30 3c0b0000 002a0d39 6f090000 2b000000  <....*.9o...+...
 0b40 000d4500 00000051 0b000014 6f090000  ..E....Q....o...
 0b50 00030000 00000eeb ff000000 2c000000  ............,...
 0b60 00055c0b 00002d00 0000000f 200a0b00  ..\...-..... ...
 0b70 00000001 1056910b 00002e00 00000010  .....V..........
 0b80 59000000 00018a0b 00001fe6 0b000000  Y...............
 0b90 00056e0b 00002f00 00000010 5d000000  ..n.../.....]...
 0ba0 00910b00 00002400 0000000e ffc20b00  ......$.........
 0bb0 002d0000 00000e01 01300e01 01b10b00  .-.......0......
 0bc0 00000708 6f090000 0708280b 00003108  ....o.....(...1.
 0bd0 280b0000 32086f09 00003108 6f090000  (...2.o...1.o...
 0be0 0708610b 00000708 6e0b0000 0b000000  ..a.....n.......
 0bf0 00d811f5 6c0d0000 0c000000 0011f66d  ....l..........m
 0c00 00000000 0c000000 0011fba3 00000008  ................
 0c10 0c000000 0011fca3 00000010 0c000000  ................
 0c20 0011fda3 00000018 0c000000 0011fea3  ................
 0c30 00000020 0c000000 0011ffa3 00000028  ... ...........(
 0c40 33000000 00110001 a3000000 30330000  3...........03..
 0c50 00001101 01a30000 00383300 00000011  .........83.....
 0c60 0201a300 00004033 00000000 110401a3  ......@3........
 0c70 00000048 33000000 00110501 a3000000  ...H3...........
 0c80 50330000 00001106 01a30000 00583300  P3...........X3.
 0c90 00000011 0801a40d 00006033 00000000  ..........`3....
 0ca0 110a01aa 0d000068 33000000 00110c01  .......h3.......
 0cb0 6d000000 70330000 00001110 016d0000  m...p3.......m..
 0cc0 00743300 00000011 12018b00 00007833  .t3...........x3
 0cd0 00000000 11160134 00000080 33000000  .......4....3...
 0ce0 00111701 49000000 82330000 00001118  ....I....3......
 0cf0 01b00d00 00833300 00000011 1c01c00d  ......3.........
 0d00 00008833 00000000 11250196 00000090  ...3.....%......
 0d10 33000000 00112d01 a1000000 98330000  3.....-......3..
 0d20 0000112e 01a10000 00a03300 00000011  ..........3.....
 0d30 2f01a100 0000a833 00000000 113001a1  /......3.....0..
 0d40 000000b0 33000000 00113201 db000000  ....3.....2.....
 0d50 b8330000 00001133 016d0000 00c03300  .3.....3.m....3.
 0d60 00000011 3501c60d 0000c400 34000000  ....5.......4...
 0d70 00119a0b 00000000 1811a0a4 0d00000c  ................
 0d80 00000000 11a1a40d 0000000c 00000000  ................
 0d90 11a2aa0d 0000080c 00000000 11a66d00  ..............m.
 0da0 00001000 0708730d 00000708 ec0b0000  ......s.........
 0db0 0fa90000 00c00d00 00104200 00000000  ..........B.....
 0dc0 07086c0d 00000fa9 000000d6 0d000010  ..l.............
 0dd0 42000000 13003500 00000036 00000000  B.....5....6....
 0de0 113f01d6 0d000036 00000000 114001d6  .?.....6.....@..
 0df0 0d000036 00000000 114101d6 0d000011  ...6.....A......
 0e00 00000000 1287aa0d 00001100 00000012  ................
 0e10 88aa0d00 00110000 00001289 aa0d0000  ................
 0e20 11000000 00131a6d 0000000f ec000000  .......m........
 0e30 360e0000 37001100 00000013 1b2b0e00  6...7........+..
 0e40 00110000 0000131e 6d000000 11000000  ........m.......
 0e50 00131f2b 0e000009 07043b00 0000142c  ...+......;....,
 0e60 00000000 810e0000 0a000000 00010a00  ................
 0e70 00000002 0a000000 00030a00 00000004  ................
 0e80 00030000 00001431 570e0000 230122f0  .......1W...#.".
 0e90 05000023 0123fb05 000038f9 08000001  ...#.#....8.....
 0ea0 c6bf0e00 00000000 00000000 001d0000  ................
 0eb0 00000000 00019cbf 0e0000da 0e000039  ...............9
 0ec0 00000000 3a090000 0291583a 00000000  ....:.....X:....
 0ed0 01c86001 00000291 6c0038bd 08000001  ..`.....l.8.....
 0ee0 beff0e00 00000000 00000000 001d0000  ................
 0ef0 00000000 00019cff 0e00001a 0f000039  ...............9
 0f00 00000000 3a090000 0291583a 00000000  ....:.....X:....
 0f10 01c06001 00000291 6c003817 09000001  ..`.....l.8.....
 0f20 b63f0f00 00000000 00000000 001d0000  .?..............
 0f30 00000000 00019c3f 0f00005a 0f000039  .......?...Z...9
 0f40 00000000 3a090000 0291583a 00000000  ....:.....X:....
 0f50 01b86001 00000291 6c0038db 08000001  ..`.....l.8.....
 0f60 ae7f0f00 00000000 00000000 001d0000  ................
 0f70 00000000 00019c7f 0f00009a 0f000039  ...............9
 0f80 00000000 3a090000 0291583a 00000000  ....:.....X:....
 0f90 01b06001 00000291 6c00389a 08000001  ..`.....l.8.....
 0fa0 a6bf0f00 00000000 00000000 00330000  .............3..
 0fb0 00000000 00019cbf 0f0000e8 0f000039  ...............9
 0fc0 00000000 3a090000 0291583b 00000000  ....:.....X;....
 0fd0 01a64509 00000291 503a0000 000001a8  ..E.....P:......
 0fe0 60010000 02916c00 381d0800 0001a00d  `.....l.8.......
 0ff0 10000000 00000000 00000033 00000000  ...........3....
 1000 00000001 9c0d1000 00441000 00390000  .........D...9..
 1010 00003a09 00000291 683b0000 000001a0  ..:.....h;......
 1020 3b040000 0291603b 00000000 01a0ff02  ;.....`;........
 1030 00000291 583b0000 000001a0 c5000000  ....X;..........
 1040 02915400 384a0800 00019a69 10000000  ..T.8J.....i....
 1050 00000000 00000029 00000000 00000001  .......)........
 1060 9c691000 00921000 00390000 00003a09  .i.......9....:.
 1070 00000291 683b0000 0000019a 3f090000  ....h;......?...
 1080 0291603b 00000000 019aff02 00000291  ..`;............
 1090 58003c6c 07000001 95b71000 00000000  X.<l............
 10a0 00000000 00110000 00000000 00019cb7  ................
 10b0 100000c4 10000039 00000000 3a090000  .......9....:...
 10c0 02916800 3c4d0700 000190e9 10000000  ..h.<M..........
 10d0 00000000 0000001a 00000000 00000001  ................
 10e0 9ce91000 00041100 00390000 00003a09  .........9....:.
 10f0 00000291 683b0000 00000190 b5000000  ....h;..........
 1100 02916400 388a0700 00018929 11000000  ..d.8......)....
 1110 00000000 0000001f 00000000 00000001  ................
 1120 9c291100 00441100 00390000 00003a09  .)...D...9....:.
 1130 00000291 683d6b65 79000189 e6000000  ....h=key.......
 1140 02916000 38e10700 00018069 11000000  ..`.8......i....
 1150 00000000 00000067 00000000 00000001  .......g........
 1160 9c691100 00cd1100 00390000 00003a09  .i.......9....:.
 1170 00000291 583b0000 00000180 3f090000  ....X;......?...
 1180 0291503b 00000000 0180ff02 00000291  ..P;............
 1190 483b0000 00000181 3f090000 0291403b  H;......?.....@;
 11a0 00000000 01815902 00000391 b87f3b00  ......Y.......;.
 11b0 00000001 82d00000 000391b4 7f3b0000  .............;..
 11c0 00000182 c5000000 0391b07f 0038a907  .............8..
 11d0 00000177 f2110000 00000000 00000000  ...w............
 11e0 68000000 00000000 019cf211 00005612  h.............V.
 11f0 00003900 0000003a 09000002 91583b00  ..9....:.....X;.
 1200 00000001 773f0900 00029150 3b000000  ....w?.....P;...
 1210 000177ff 02000002 91483b00 00000001  ..w......H;.....
 1220 78940400 00029140 3b000000 000178a1  x......@;.....x.
 1230 00000003 91b87f3b 00000000 0179d000  .......;.....y..
 1240 00000391 b47f3b00 00000001 79c50000  ......;.....y...
 1250 000391b0 7f003811 07000001 6c7b1200  ......8.....l{..
 1260 00000000 00000000 005a0000 00000000  .........Z......
 1270 00019c7b 120000e9 12000039 00000000  ...{.......9....
 1280 3a090000 0291583d 70696400 016cc500  :.....X=pid..l..
 1290 00000291 543d7669 6400016c c5000000  ....T=vid..l....
 12a0 0291503d 6e756d00 016cc500 00000291  ..P=num..l......
 12b0 4c3b0000 0000016c c5000000 0291483b  L;.....l......H;
 12c0 00000000 016dc500 00000291 443d6964  .....m......D=id
 12d0 00016de5 05000002 91003a00 00000001  ..m.......:.....
 12e0 6f600100 0002916c 0038a806 0000015e  o`.....l.8.....^
 12f0 0e130000 00000000 00000000 65000000  ............e...
 1300 00000000 019c0e13 00006013 00003900  ..........`...9.
 1310 0000003a 09000002 91583b00 00000001  ...:.....X;.....
 1320 5ee60000 00029150 3b000000 00015ed0  ^......P;.....^.
 1330 00000002 914c3d69 6400015f e5050000  .....L=id.._....
 1340 0291483a 00000000 01616001 00000291  ..H:.....a`.....
 1350 6c3e7265 74000163 2f050000 02916b00  l>ret..c/.....k.
 1360 3cf30600 00015985 13000000 00000000  <.....Y.........
 1370 00000012 00000000 00000001 9c851300  ................
 1380 00921300 00390000 00003a09 00000291  .....9....:.....
 1390 68003cd5 06000001 55b71300 00000000  h.<.....U.......
 13a0 00000000 00120000 00000000 00019cb7  ................
 13b0 130000c4 13000039 00000000 3a090000  .......9....:...
 13c0 02916800 388a0600 00014ce9 13000000  ..h.8.....L.....
 13d0 00000000 0000002a 00000000 00000001  .......*........
 13e0 9ce91300 00f61300 00390000 00003a09  .........9....:.
 13f0 00000291 68003f6c 06000001 1a140000  ....h.?l........
 1400 00000000 00000000 e5000000 00000000  ................
 1410 019c1a14 00004814 00003900 0000003a  ......H...9....:
 1420 09000002 91583a00 00000001 34600100  .....X:.....4`..
 1430 0002916c 40000000 00581400 00090300  ...l@....X......
 1440 00000000 00000000 0fb00000 00581400  .............X..
 1450 00104200 00000400 05481400 00414d06  ..B......H...AM.
 1460 0000012c 006d1400 00801400 00420000  ...,.m.......B..
 1470 00003a09 00004200 00000074 00000000  ..:...B....t....
 1480 435d1400 00000000 00a71400 00000000  C]..............
 1490 00000000 001b0000 00000000 00019ca7  ................
 14a0 140000b0 14000044 6d140000 02916800  .......Dm.....h.
 14b0 412e0600 00012500 c0140000 d5140000  A.....%.........
 14c0 42000000 003a0900 00450000 00000125  B....:...E.....%
 14d0 b5000000 0046b014 00000000 0000f814  .....F..........
 14e0 00000000 00000000 00002a00 00000000  ..........*.....
 14f0 0000019c f8140000 44c01400 00029168  ........D......h
 1500 44c91400 00029164 0000               D......d..      
Contents of section .debug_abbrev:
 0000 01110125 0e130b03 0e1b0e11 01120710  ...%............
 0010 17000002 24000b0b 3e0b030e 00000316  ....$...>.......
 0020 00030e3a 0b3b0b49 13000004 24000b0b  ...:.;.I....$...
 0030 3e0b0308 00000526 00491300 00060f00  >......&.I......
 0040 0b0b0000 070f000b 0b491300 00083b00  .........I....;.
 0050 030e0000 0904013e 0b0b0b49 133a0b3b  .......>...I.:.;
 0060 0b6e0e01 1300000a 2800030e 1c0b0000  .n......(.......
 0070 0b130103 0e0b0b3a 0b3b0b01 1300000c  .......:.;......
 0080 0d00030e 3a0b3b0b 4913380b 00000d17  ....:.;.I.8.....
 0090 010b0b3a 0b3b0b01 1300000e 0d00030e  ...:.;..........
 00a0 3a0b3b0b 49130000 0f010149 13011300  :.;.I......I....
 00b0 00102100 49132f0b 00001134 00030e3a  ..!.I./....4...:
 00c0 0b3b0b49 133f193c 19000012 2800030e  .;.I.?.<....(...
 00d0 1c060000 13150149 13011300 00140500  .......I........
 00e0 49130000 15130103 0e0b053a 0b3b0b01  I..........:.;..
 00f0 13000016 0d00030e 3a0b3b0b 49133805  ........:.;.I.8.
 0100 00001713 010b0b3a 0b3b0b6e 0e011300  .......:.;.n....
 0110 00181501 01130000 1913010b 053a0b3b  .............:.;
 0120 0b6e0e01 1300001a 21004913 2f050000  .n......!.I./...
 0130 1b390103 083a0b3b 0b011300 001c3901  .9...:.;......9.
 0140 030e3a0b 3b0b0000 1d020103 0e0b0b3a  ..:.;..........:
 0150 0b3b0b00 001e2e01 3f19030e 3a0b3b0b  .;......?...:.;.
 0160 6e0e320b 3c196413 01130000 1f050049  n.2.<.d........I
 0170 13341900 00202e01 3f19030e 3a0b3b0b  .4... ..?...:.;.
 0180 6e0e4913 320b3c19 64130113 0000212e  n.I.2.<.d.....!.
 0190 013f1903 0e3a0b3b 0b6e0e49 13320b3c  .?...:.;.n.I.2.<
 01a0 19641300 00223900 030e3a0b 3b0b0000  .d..."9...:.;...
 01b0 233a003a 0b3b0b18 13000024 3901030e  #:.:.;.....$9...
 01c0 3a0b3b0b 01130000 25020103 0e0b0b3a  :.;.....%......:
 01d0 0b3b0b01 13000026 2e013f19 030e3a0b  .;.....&..?...:.
 01e0 3b0b6e0e 3c196319 64130113 0000272e  ;.n.<.c.d.....'.
 01f0 013f1903 0e3a0b3b 0b6e0e3c 19641301  .?...:.;.n.<.d..
 0200 13000028 2e013f19 030e3a0b 3b0b6e0e  ...(..?...:.;.n.
 0210 49133c19 64130113 0000292e 013f1903  I.<.d.....)..?..
 0220 0e3a0b3b 0b6e0e49 13320b3c 19631964  .:.;.n.I.2.<.c.d
 0230 13011300 002a0800 3a0b3b0b 18130000  .....*..:.;.....
 0240 2b2e013f 19030e3a 0b3b0b6e 0e870119  +..?...:.;.n....
 0250 3c190113 00002c02 00030e3c 1900002d  <.....,....<...-
 0260 3900030e 3a0b3b05 00002e2e 013f1903  9...:.;......?..
 0270 0e3a0b3b 0b6e0e3c 1963198b 010b6413  .:.;.n.<.c....d.
 0280 00002f34 00030e3a 0b3b0b6e 0e49133f  ../4...:.;.n.I.?
 0290 193c1900 00303a00 3a0b3b05 18130000  .<...0:.:.;.....
 02a0 3110000b 0b491300 00324200 0b0b4913  1....I...2B...I.
 02b0 0000330d 00030e3a 0b3b0549 13380b00  ..3....:.;.I.8..
 02c0 00341600 030e3a0b 3b0b0000 35130003  .4....:.;...5...
 02d0 0e3c1900 00363400 030e3a0b 3b054913  .<...64...:.;.I.
 02e0 3f193c19 00003721 00000038 2e014713  ?.<...7!...8..G.
 02f0 3a0b3b0b 64131101 12074018 64139642  :.;.d.....@.d..B
 0300 19011300 00390500 030e4913 34190218  .....9....I.4...
 0310 00003a34 00030e3a 0b3b0b49 13021800  ..:4...:.;.I....
 0320 003b0500 030e3a0b 3b0b4913 02180000  .;....:.;.I.....
 0330 3c2e0147 133a0b3b 0b641311 01120740  <..G.:.;.d.....@
 0340 18641397 42190113 00003d05 0003083a  .d..B.....=....:
 0350 0b3b0b49 13021800 003e3400 03083a0b  .;.I.....>4...:.
 0360 3b0b4913 02180000 3f2e0147 133a0b64  ;.I.....?..G.:.d
 0370 13110112 07401864 13964219 01130000  .....@.d..B.....
 0380 40340003 0e491334 19021800 00412e01  @4...I.4.....A..
 0390 47133a0b 3b0b200b 64130113 00004205  G.:.;. .d.....B.
 03a0 00030e49 13341900 00432e01 31136e0e  ...I.4...C..1.n.
 03b0 64131101 12074018 64139642 19011300  d.....@.d..B....
 03c0 00440500 31130218 00004505 00030e3a  .D..1.....E....:
 03d0 0b3b0b49 13000046 2e013113 6e0e6413  .;.I...F..1.n.d.
 03e0 11011207 40186413 97421900 0000      ....@.d..B....  
Contents of section .debug_aranges:
 0000 2c000000 02000000 00000800 00000000  ,...............
 0010 00000000 00000000 5f040000 00000000  ........_.......
 0020 00000000 00000000 00000000 00000000  ................
Contents of section .debug_line:
 0000 47040000 0200af03 00000101 fb0e0d00  G...............
 0010 01010101 00000001 0000012f 686f6d65  .........../home
 0020 2f646a69 2f476974 6875622f 4f6e626f  /dji/Github/Onbo
 0030 6172642d 53444b2f 6f73646b 2d636f72  ard-SDK/osdk-cor
 0040 652f7364 6b2d6c69 6e6b6572 002f7573  e/sdk-linker./us
 0050 722f696e 636c7564 652f7838 365f3634  r/include/x86_64
 0060 2d6c696e 75782d67 6e752f62 69747300  -linux-gnu/bits.
 0070 2f757372 2f6c6962 2f676363 2f783836  /usr/lib/gcc/x86
 0080 5f36342d 6c696e75 782d676e 752f372f  _64-linux-gnu/7/
 0090 696e636c 75646500 2f686f6d 652f646a  include./home/dj
 00a0 692f4769 74687562 2f4f6e62 6f617264  i/Github/Onboard
 00b0 2d53444b 2f6f7364 6b2d636f 72652f73  -SDK/osdk-core/s
 00c0 646b2d6c 696e6b65 722f636f 7265002f  dk-linker/core./
 00d0 686f6d65 2f646a69 2f476974 6875622f  home/dji/Github/
 00e0 4f6e626f 6172642d 53444b2f 6f73646b  Onboard-SDK/osdk
 00f0 2d636f72 652f7364 6b2d6c69 6e6b6572  -core/sdk-linker
 0100 2f636f72 652f7072 6f746f63 6f6c002f  /core/protocol./
 0110 7573722f 696e636c 7564652f 6e657469  usr/include/neti
 0120 6e657400 2f686f6d 652f646a 692f4769  net./home/dji/Gi
 0130 74687562 2f4f6e62 6f617264 2d53444b  thub/Onboard-SDK
 0140 2f6f7364 6b2d636f 72652f73 646b2d6c  /osdk-core/sdk-l
 0150 696e6b65 722f636f 72652f70 6c617466  inker/core/platf
 0160 6f726d00 2f686f6d 652f646a 692f4769  orm./home/dji/Gi
 0170 74687562 2f4f6e62 6f617264 2d53444b  thub/Onboard-SDK
 0180 2f6f7364 6b2d636f 72652f73 646b2d6c  /osdk-core/sdk-l
 0190 696e6b65 722f636f 72652f63 6f6d6d61  inker/core/comma
 01a0 6e64002f 686f6d65 2f646a69 2f476974  nd./home/dji/Git
 01b0 6875622f 4f6e626f 6172642d 53444b2f  hub/Onboard-SDK/
 01c0 6f73646b 2d636f72 652f7364 6b2d6c69  osdk-core/sdk-li
 01d0 6e6b6572 2f636f72 652f6368 616e6e65  nker/core/channe
 01e0 6c002f75 73722f69 6e636c75 64652f63  l./usr/include/c
 01f0 2b2b2f37 2f626974 73002f75 73722f69  ++/7/bits./usr/i
 0200 6e636c75 64652f78 38365f36 342d6c69  nclude/x86_64-li
 0210 6e75782d 676e752f 632b2b2f 372f6269  nux-gnu/c++/7/bi
 0220 7473002f 7573722f 696e636c 7564652f  ts./usr/include/
 0230 632b2b2f 37002f75 73722f69 6e636c75  c++/7./usr/inclu
 0240 6465002f 686f6d65 2f646a69 2f476974  de./home/dji/Git
 0250 6875622f 4f6e626f 6172642d 53444b2f  hub/Onboard-SDK/
 0260 6f73646b 2d636f72 652f7364 6b2d6c69  osdk-core/sdk-li
 0270 6e6b6572 2f636f72 652f6c6f 67676572  nker/core/logger
 0280 0000646a 695f6c69 6e6b6572 2e637070  ..dji_linker.cpp
 0290 00010000 74797065 732e6800 02000073  ....types.h....s
 02a0 7464696e 742d7569 6e746e2e 68000200  tdint-uintn.h...
 02b0 00737464 6465662e 68000300 006f7364  .stddef.h....osd
 02c0 6b5f7479 70656465 662e6800 0400006f  k_typedef.h....o
 02d0 73646b5f 70726f74 6f636f6c 5f636f6d  sdk_protocol_com
 02e0 6d6f6e2e 68000500 00696e2e 68000600  mon.h....in.h...
 02f0 006f7364 6b5f706c 6174666f 726d2e68  .osdk_platform.h
 0300 00070000 6f73646b 5f636f6d 6d616e64  ....osdk_command
 0310 2e680008 00006f73 646b5f63 68616e6e  .h....osdk_chann
 0320 656c2e68 00090000 646a695f 6c696e6b  el.h....dji_link
 0330 65722e68 70700001 00003c62 75696c74  er.hpp....<built
 0340 2d696e3e 00000000 65786365 7074696f  -in>....exceptio
 0350 6e5f7074 722e6800 0a000063 2b2b636f  n_ptr.h....c++co
 0360 6e666967 2e68000b 00007479 70655f74  nfig.h....type_t
 0370 72616974 73000c00 006e6577 000c0000  raits....new....
 0380 6c696269 6f2e6800 02000073 7464696f  libio.h....stdio
 0390 2e68000d 00007379 735f6572 726c6973  .h....sys_errlis
 03a0 742e6800 0200006f 73646b5f 6c6f6767  t.h....osdk_logg
 03b0 65722e68 000e0000 00000902 00000000  er.h............
 03c0 00000000 032401c9 a083833e bcbb4ebd  .....$.....>..N.
 03d0 83670230 13a18367 02301377 83670230  .g.0...g.0.w.g.0
 03e0 13775940 bbc9595a 59308383 30838333  .wY@..YZY0..0..3
 03f0 085a0867 9f000204 01069006 ad000204  .Z.g............
 0400 01069006 ae4b4202 2c140225 13753602  .....KB.,..%.u6.
 0410 28130239 13216c02 2813bb02 2d1378f3  (..9.!l.(...-.x.
 0420 bb4ec99f 3f837540 083d082f 40089108  .N..?.u@.=./@...
 0430 6740f408 917540bc 837540bc 837540bc  g@...u@..u@..u@.
 0440 837540bc 83750202 000101             .u@..u.....     
Contents of section .debug_str:
 0000 6e656564 41636b00 656e6354 79706500  needAck.encType.
 0010 73697a65 5f740073 656e6465 72496400  size_t.senderId.
 0020 636d6444 61746100 455f5072 6f746f63  cmdData.E_Protoc
 0030 6f6c5479 70650073 656e6449 6e666f00  olType.sendInfo.
 0040 5f5a4e33 444a4934 4f53444b 364c696e  _ZN3DJI4OSDK6Lin
 0050 6b657236 6465696e 69744576 005f494f  ker6deinitEv._IO
 0060 5f325f31 5f737464 6572725f 005f494f  _2_1_stderr_._IO
 0070 5f736176 655f656e 6400696e 36616464  _save_end.in6add
 0080 725f6c6f 6f706261 636b0063 72656174  r_loopback.creat
 0090 65416476 616e6365 6453656e 73696e67  eAdvancedSensing
 00a0 5461736b 00555342 5f42554c 4b5f4c49  Task.USB_BULK_LI
 00b0 56455649 45575f43 48414e4e 454c5f49  VEVIEW_CHANNEL_I
 00c0 44006973 55617274 506c7567 67656400  D.isUartPlugged.
 00d0 5f4d5f61 64647265 66005f4d 5f676574  _M_addref._M_get
 00e0 00313045 5f4f7364 6b537461 74005f49  .10E_OsdkStat._I
 00f0 4f5f7772 6974655f 62617365 005f5a4e  O_write_base._ZN
 0100 33444a49 344f5344 4b364c69 6e6b6572  3DJI4OSDK6Linker
 0110 3773656e 6441636b 45504b38 5f636d64  7sendAckEPK8_cmd
 0120 496e666f 504b6874 005f6c6f 636b0073  InfoPKht._lock.s
 0130 74646572 72004643 5f554152 545f4348  tderr.FC_UART_CH
 0140 414e4e45 4c5f4944 00646573 74726f79  ANNEL_ID.destroy
 0150 41647661 6e636564 53656e73 696e6754  AdvancedSensingT
 0160 61736b00 6e6f7468 726f7700 545f5265  ask.nothrow.T_Re
 0170 6376436d 64497465 6d005f49 4f5f7361  cvCmdItem._IO_sa
 0180 76655f62 61736500 4f53444b 5f535441  ve_base.OSDK_STA
 0190 545f4e4f 545f5245 41445900 436f6d6d  T_NOT_READY.Comm
 01a0 616e645f 53656e64 43616c6c 6261636b  and_SendCallback
 01b0 00636f6e 66005f5a 4e537431 355f5f65  .conf._ZNSt15__e
 01c0 78636570 74696f6e 5f707472 31336578  xception_ptr13ex
 01d0 63657074 696f6e5f 70747243 34455076  ception_ptrC4EPv
 01e0 0063616c 6c626163 6b005f63 6861696e  .callback._chain
 01f0 005f6375 725f636f 6c756d6e 00737973  ._cur_column.sys
 0200 5f6e6572 72007365 7373696f 6e496400  _nerr.sessionId.
 0210 4f53444b 5f4c4f47 4745525f 434f4e53  OSDK_LOGGER_CONS
 0220 4f4c455f 4c4f475f 4c455645 4c5f494e  OLE_LOG_LEVEL_IN
 0230 464f005f 5f75696e 74385f74 0073656e  FO.__uint8_t.sen
 0240 6454696d 65537461 6d700074 7970655f  dTimeStamp.type_
 0250 696e666f 005f7379 735f6e65 7272006c  info._sys_nerr.l
 0260 6f6e6720 696e7400 5f5a4e53 7431355f  ong int._ZNSt15_
 0270 5f657863 65707469 6f6e5f70 74723133  _exception_ptr13
 0280 65786365 7074696f 6e5f7074 72615345  exception_ptraSE
 0290 524b5330 5f003136 545f436d 64576169  RKS0_.16T_CmdWai
 02a0 7441636b 4974656d 006e6f74 68726f77  tAckItem.nothrow
 02b0 5f740064 6174614c 656e005f 5a4e3344  _t.dataLen._ZN3D
 02c0 4a49344f 53444b36 4c696e6b 65723133  JI4OSDK6Linker13
 02d0 63726561 74654163 6b496e66 6f45385f  createAckInfoE8_
 02e0 636d6449 6e666f6a 005f494f 5f6d6172  cmdInfoj._IO_mar
 02f0 6b657200 7365714e 756d0073 656e6441  ker.seqNum.sendA
 0300 636b0072 65676973 74657243 6d644861  ck.registerCmdHa
 0310 6e646c65 72005052 4f544f43 4f4c5f55  ndler.PROTOCOL_U
 0320 53424d43 006e756c 6c707472 5f740050  SBMC.nullptr_t.P
 0330 524f544f 434f4c5f 52415700 7369676e  ROTOCOL_RAW.sign
 0340 65642063 68617200 75696e74 385f7400  ed char.uint8_t.
 0350 5f494f5f 46494c45 00555342 5f41434d  _IO_FILE.USB_ACM
 0360 5f434841 4e4e454c 5f494400 4f53444b  _CHANNEL_ID.OSDK
 0370 5f4c4f47 4745525f 434f4e53 4f4c455f  _LOGGER_CONSOLE_
 0380 4c4f475f 4c455645 4c5f4552 524f5200  LOG_LEVEL_ERROR.
 0390 6f706572 61746f72 3d00455f 4f73646b  operator=.E_Osdk
 03a0 4c6f6767 6572436f 6e736f6c 654c6f67  LoggerConsoleLog
 03b0 4c657665 6c00756e 7369676e 65642063  Level.unsigned c
 03c0 68617200 72656376 436d6448 616e646c  har.recvCmdHandl
 03d0 654c6973 74007265 6376436d 6448616e  eList.recvCmdHan
 03e0 646c654c 6973744d 75746578 005f5a4e  dleListMutex._ZN
 03f0 33444a49 344f5344 4b364c69 6e6b6572  3DJI4OSDK6Linker
 0400 31387265 67697374 6572436d 6448616e  18registerCmdHan
 0410 646c6572 45503135 545f5265 6376436d  dlerEP15T_RecvCm
 0420 6448616e 646c6500 50524f54 4f434f4c  dHandle.PROTOCOL
 0430 5f563100 5f5f4655 4e435449 4f4e5f5f  _V1.__FUNCTION__
 0440 00726563 76436d64 48616e64 6c654c69  .recvCmdHandleLi
 0450 7374436f 756e7400 72657468 726f775f  stCount.rethrow_
 0460 65786365 7074696f 6e005f49 4f5f4649  exception._IO_FI
 0470 4c455f70 6c757300 5f5a4e33 444a4934  LE_plus._ZN3DJI4
 0480 4f53444b 364c696e 6b657234 73656e64  OSDK6Linker4send
 0490 4550385f 636d6449 6e666f50 4b680063  EP8_cmdInfoPKh.c
 04a0 68617200 545f436d 64576169 7441636b  har.T_CmdWaitAck
 04b0 4974656d 005f494f 5f6c6f63 6b5f7400  Item._IO_lock_t.
 04c0 5f5f7569 6e743136 5f74004d 41534b5f  __uint16_t.MASK_
 04d0 484f5354 5f444556 4943455f 5858585f  HOST_DEVICE_XXX_
 04e0 58580064 65636c74 79706528 6e756c6c  XX.decltype(null
 04f0 70747229 005f494f 5f726561 645f7074  ptr)._IO_read_pt
 0500 7200545f 4f73646b 4d757465 7848616e  r.T_OsdkMutexHan
 0510 646c6500 65704f75 74005f70 6f730073  dle.epOut._pos.s
 0520 7464696e 00313554 5f526563 76436d64  tdin.15T_RecvCmd
 0530 48616e64 6c65005f 5a4e3344 4a49344f  Handle._ZN3DJI4O
 0540 53444b36 4c696e6b 65724434 45760073  SDK6LinkerD4Ev.s
 0550 656e6444 61746100 6465696e 6974005f  endData.deinit._
 0560 6d61726b 65727300 696e3661 6464725f  markers.in6addr_
 0570 616e7900 5f5a4e53 7431355f 5f657863  any._ZNSt15__exc
 0580 65707469 6f6e5f70 74723133 65786365  eption_ptr13exce
 0590 7074696f 6e5f7074 72347377 61704552  ption_ptr4swapER
 05a0 53305f00 61646455 53424275 6c6b4368  S0_.addUSBBulkCh
 05b0 616e6e65 6c00636d 64536574 005f5f63  annel.cmdSet.__c
 05c0 78615f65 78636570 74696f6e 5f747970  xa_exception_typ
 05d0 65005f6f 66667365 74002f68 6f6d652f  e._offset./home/
 05e0 646a692f 47697468 75622f4f 6e626f61  dji/Github/Onboa
 05f0 72642d53 444b2f6f 73646b2d 636f7265  rd-SDK/osdk-core
 0600 2f73646b 2d6c696e 6b65722f 646a695f  /sdk-linker/dji_
 0610 6c696e6b 65722e63 70700045 5f436861  linker.cpp.E_Cha
 0620 6e6e656c 49445479 70650052 4e444953  nnelIDType.RNDIS
 0630 5f554450 5f434841 4e4e454c 5f494400  _UDP_CHANNEL_ID.
 0640 5f5a4e53 7431355f 5f657863 65707469  _ZNSt15__excepti
 0650 6f6e5f70 74723133 65786365 7074696f  on_ptr13exceptio
 0660 6e5f7074 72615345 4f53305f 0061636b  n_ptraSEOS0_.ack
 0670 496e666f 0070726f 746f5479 7065005f  Info.protoType._
 0680 5a4e3344 4a49344f 53444b36 4c696e6b  ZN3DJI4OSDK6Link
 0690 65723235 63726561 74654164 76616e63  er25createAdvanc
 06a0 65645365 6e73696e 67546173 6b457600  edSensingTaskEv.
 06b0 5f5a4e33 444a4934 4f53444b 364c696e  _ZN3DJI4OSDK6Lin
 06c0 6b657243 32456800 5f494f5f 325f315f  kerC2Eh._IO_2_1_
 06d0 73746469 6e5f006c 6f6e6720 756e7369  stdin_.long unsi
 06e0 676e6564 20696e74 004d4153 4b5f484f  gned int.MASK_HO
 06f0 53545f58 58585858 585f5345 545f4944  ST_XXXXXX_SET_ID
 0700 005f5a4e 53743135 5f5f6578 63657074  ._ZNSt15__except
 0710 696f6e5f 70747231 33657863 65707469  ion_ptr13excepti
 0720 6f6e5f70 74724334 4576005f 4d5f7265  on_ptrC4Ev._M_re
 0730 6c656173 65007573 62506c75 67676564  lease.usbPlugged
 0740 004d4153 4b5f484f 53545f44 45564943  .MASK_HOST_DEVIC
 0750 455f5345 545f4944 00616464 55617274  E_SET_ID.addUart
 0760 4368616e 6e656c00 7e4c696e 6b657200  Channel.~Linker.
 0770 5f494f5f 72656164 5f626173 65003237  _IO_read_base.27
 0780 455f4f73 646b4c6f 67676572 436f6e73  E_OsdkLoggerCons
 0790 6f6c654c 6f674c65 76656c00 74686973  oleLogLevel.this
 07a0 005f756e 75736564 32005f43 6d64496e  ._unused2._CmdIn
 07b0 6974436f 6e660063 6d64436f 756e7400  itConf.cmdCount.
 07c0 5f5a4e4b 53743135 5f5f6578 63657074  _ZNKSt15__except
 07d0 696f6e5f 70747231 33657863 65707469  ion_ptr13excepti
 07e0 6f6e5f70 7472365f 4d5f6765 74457600  on_ptr6_M_getEv.
 07f0 4c696e6b 6572005f 6f6c645f 6f666673  Linker._old_offs
 0800 65740065 7272436f 6465005f 5a4e3344  et.errCode._ZN3D
 0810 4a49344f 53444b36 4c696e6b 65723136  JI4OSDK6Linker16
 0820 6765744c 6f63616c 53656e64 65724964  getLocalSenderId
 0830 45760073 656e6400 74696d65 4f757400  Ev.send.timeOut.
 0840 5f5f7569 6e743332 5f74005f 5f75365f  __uint32_t.__u6_
 0850 61646472 38006c6f 6e67206c 6f6e6720  addr8.long long 
 0860 696e7400 50524f54 4f434f4c 5f53444b  int.PROTOCOL_SDK
 0870 00474e55 20432b2b 31312037 2e352e30  .GNU C++11 7.5.0
 0880 202d6d74 756e653d 67656e65 72696320   -mtune=generic 
 0890 2d6d6172 63683d78 38362d36 34202d67  -march=x86-64 -g
 08a0 202d4f30 202d7374 643d632b 2b313120   -O0 -std=c++11 
 08b0 2d665049 43202d66 696e6c69 6e652d66  -fPIC -finline-f
 08c0 756e6374 696f6e73 202d666e 6f2d7374  unctions -fno-st
 08d0 72696374 2d616c69 6173696e 67202d66  rict-aliasing -f
 08e0 76697369 62696c69 74793d68 69646465  visibility=hidde
 08f0 6e202d66 73746163 6b2d7072 6f746563  n -fstack-protec
 0900 746f722d 7374726f 6e670067 65744c6f  tor-strong.getLo
 0910 63616c53 656e6465 72496400 646f7562  calSenderId.doub
 0920 6c65005f 5a4e3344 4a49344f 53444b36  le._ZN3DJI4OSDK6
 0930 4c696e6b 65723138 63726561 74654c69  Linker18createLi
 0940 76655669 65775461 736b4576 005f494f  veViewTaskEv._IO
 0950 5f777269 74655f65 6e64004f 53444b5f  _write_end.OSDK_
 0960 53544154 5f455252 5f504152 414d0077  STAT_ERR_PARAM.w
 0970 61697441 636b4974 656d006d 61736b00  aitAckItem.mask.
 0980 666c6f61 74007365 6e645379 6e630061  float.sendSync.a
 0990 64647200 5f494f5f 6275665f 62617365  ddr._IO_buf_base
 09a0 005f666c 61677332 00736574 4b657900  ._flags2.setKey.
 09b0 756e7369 676e6564 20696e74 0073656e  unsigned int.sen
 09c0 64657200 7061636b 65745479 7065006f  der.packetType.o
 09d0 70657261 746f7220 626f6f6c 005f5f70  perator bool.__p
 09e0 61643100 5f5f7061 6432005f 5f706164  ad1.__pad2.__pad
 09f0 33005f5f 70616434 005f5f70 61643500  3.__pad4.__pad5.
 0a00 69735553 42506c75 67676564 002f686f  isUSBPlugged./ho
 0a10 6d652f64 6a692f47 69746875 622f4f6e  me/dji/Github/On
 0a20 626f6172 642d5344 4b2f6f73 646b2d63  board-SDK/osdk-c
 0a30 6f72652f 73646b2d 6c696e6b 65722f62  ore/sdk-linker/b
 0a40 75696c64 005f7362 7566005f 436f6d6d  uild._sbuf._Comm
 0a50 616e6448 616e646c 65005f5a 4e33444a  andHandle._ZN3DJ
 0a60 49344f53 444b364c 696e6b65 72313269  I4OSDK6Linker12i
 0a70 73555342 506c7567 67656445 76005f66  sUSBPluggedEv._f
 0a80 6c616773 00657049 6e005f5a 4e33444a  lags.epIn._ZN3DJ
 0a90 49344f53 444b364c 696e6b65 72397365  I4OSDK6Linker9se
 0aa0 6e644173 796e6345 50385f63 6d64496e  ndAsyncEP8_cmdIn
 0ab0 666f504b 68504676 504b5332 5f53355f  foPKhPFvPKS2_S5_
 0ac0 50763130 455f4f73 646b5374 61744553  Pv10E_OsdkStatES
 0ad0 385f6a74 005f636d 64496e66 6f005f6d  8_jt._cmdInfo._m
 0ae0 6f646500 7e657863 65707469 6f6e5f70  ode.~exception_p
 0af0 74720069 6e365f61 64647200 5f5f676e  tr.in6_addr.__gn
 0b00 755f6378 78005f5a 4e33444a 49344f53  u_cxx._ZN3DJI4OS
 0b10 444b364c 696e6b65 72313761 64645553  DK6Linker17addUS
 0b20 4242756c 6b436861 6e6e656c 45747474  BBulkChannelEttt
 0b30 74743135 455f4368 616e6e65 6c494454  tt15E_ChannelIDT
 0b40 79706500 5f5f6578 63657074 696f6e5f  ype.__exception_
 0b50 70747200 5f5a4e33 444a4934 4f53444b  ptr._ZN3DJI4OSDK
 0b60 364c696e 6b657231 39646573 74726f79  6Linker19destroy
 0b70 4c697665 56696577 5461736b 45760062  LiveViewTaskEv.b
 0b80 6f6f6c00 6368616e 6e656c49 64006c6f  ool.channelId.lo
 0b90 6e672064 6f75626c 6500636d 644c6973  ng double.cmdLis
 0ba0 7400455f 4f73646b 53746174 004f5344  t.E_OsdkStat.OSD
 0bb0 4b5f5354 41545f45 52525f41 4c4c4f43  K_STAT_ERR_ALLOC
 0bc0 00697356 616c6964 00656e63 4b657900  .isValid.encKey.
 0bd0 73656e64 4173796e 63007265 6376436d  sendAsync.recvCm
 0be0 6448616e 646c6500 64657669 6365006c  dHandle.device.l
 0bf0 6f6e6720 6c6f6e67 20756e73 69676e65  ong long unsigne
 0c00 6420696e 74005f5a 5374376e 6f746872  d int._ZSt7nothr
 0c10 6f77004f 53444b5f 53544154 5f455252  ow.OSDK_STAT_ERR
 0c20 5f4f5554 5f4f465f 52414e47 45007377  _OUT_OF_RANGE.sw
 0c30 61700075 696e7431 365f7400 5f5f6f66  ap.uint16_t.__of
 0c40 665f7400 61636b44 61746100 5f5a4e53  f_t.ackData._ZNS
 0c50 7431355f 5f657863 65707469 6f6e5f70  t15__exception_p
 0c60 74723133 65786365 7074696f 6e5f7074  tr13exception_pt
 0c70 72433445 446e005f 5a537431 37726574  rC4EDn._ZSt17ret
 0c80 68726f77 5f657863 65707469 6f6e4e53  hrow_exceptionNS
 0c90 7431355f 5f657863 65707469 6f6e5f70  t15__exception_p
 0ca0 74723133 65786365 7074696f 6e5f7074  tr13exception_pt
 0cb0 72450063 6d64496e 666f004d 41534b5f  rE.cmdInfo.MASK_
 0cc0 484f5354 5f585858 5858585f 5858585f  HOST_XXXXXX_XXX_
 0cd0 5858004f 53444b5f 53544154 5f455252  XX.OSDK_STAT_ERR
 0ce0 00726574 72795469 6d657300 4f53444b  .retryTimes.OSDK
 0cf0 5f535441 545f5359 535f4552 52006465  _STAT_SYS_ERR.de
 0d00 7374726f 794c6976 65566965 77546173  stroyLiveViewTas
 0d10 6b005f5f 63787831 31004d41 534b5f48  k.__cxx11.MASK_H
 0d20 4f53545f 44455649 43455f53 45545f58  OST_DEVICE_SET_X
 0d30 58005f49 4f5f6261 636b7570 5f626173  X._IO_backup_bas
 0d40 65005f73 686f7274 62756600 5f5a4e33  e._shortbuf._ZN3
 0d50 444a4934 4f53444b 364c696e 6b657234  DJI4OSDK6Linker4
 0d60 696e6974 4576004f 53444b5f 53544154  initEv.OSDK_STAT
 0d70 5f4e4f5f 4e454544 5f41434b 005f494f  _NO_NEED_ACK._IO
 0d80 5f325f31 5f737464 6f75745f 004f5344  _2_1_stdout_.OSD
 0d90 4b5f5354 41545f45 52525f4e 4f545f46  K_STAT_ERR_NOT_F
 0da0 4f554e44 004f5344 4b5f5354 41545f45  OUND.OSDK_STAT_E
 0db0 52525f54 494d454f 55540054 5f436d64  RR_TIMEOUT.T_Cmd
 0dc0 496e6974 436f6e66 004f5344 4b5f4c4f  InitConf.OSDK_LO
 0dd0 47474552 5f434f4e 534f4c45 5f4c4f47  GGER_CONSOLE_LOG
 0de0 5f4c4556 454c5f44 45425547 005f6e65  _LEVEL_DEBUG._ne
 0df0 7874005f 5f6f6666 36345f74 00545f52  xt.__off64_t.T_R
 0e00 65637643 6d644861 6e646c65 00696e69  ecvCmdHandle.ini
 0e10 74003134 455f5072 6f746f63 6f6c5479  t.14E_ProtocolTy
 0e20 7065005f 5a4e4b53 7431355f 5f657863  pe._ZNKSt15__exc
 0e30 65707469 6f6e5f70 74723133 65786365  eption_ptr13exce
 0e40 7074696f 6e5f7074 7232305f 5f637861  ption_ptr20__cxa
 0e50 5f657863 65707469 6f6e5f74 79706545  _exception_typeE
 0e60 76005f5f 73776170 7061626c 655f6465  v.__swappable_de
 0e70 7461696c 73005f49 4f5f6275 665f656e  tails._IO_buf_en
 0e80 64007365 7453656e 64657249 64005f5a  d.setSenderId._Z
 0e90 4e537439 6e6f7468 726f775f 74433445  NSt9nothrow_tC4E
 0ea0 7600686f 73740075 61727450 6c756767  v.host.uartPlugg
 0eb0 65640070 46756e63 005f5a4e 33444a49  ed.pFunc._ZN3DJI
 0ec0 344f5344 4b364c69 6e6b6572 43344568  4OSDK6LinkerC4Eh
 0ed0 0073686f 72742069 6e74005f 4d5f6578  .short int._M_ex
 0ee0 63657074 696f6e5f 6f626a65 63740066  ception_object.f
 0ef0 756e6300 5f5a4e4b 53743135 5f5f6578  unc._ZNKSt15__ex
 0f00 63657074 696f6e5f 70747231 33657863  ception_ptr13exc
 0f10 65707469 6f6e5f70 74726376 62457600  eption_ptrcvbEv.
 0f20 5f767461 626c655f 6f666673 6574005f  _vtable_offset._
 0f30 7379735f 6572726c 69737400 63726561  sys_errlist.crea
 0f40 74654c69 76655669 65775461 736b0062  teLiveViewTask.b
 0f50 61756472 61746500 5f5a4e33 444a4934  audrate._ZN3DJI4
 0f60 4f53444b 364c696e 6b657231 31736574  OSDK6Linker11set
 0f70 53656e64 65724964 4568005f 50726f74  SenderIdEh._Prot
 0f80 436d6449 74656d00 61636b44 6174614c  CmdItem.ackDataL
 0f90 656e0063 6d644964 005f494f 5f726561  en.cmdId._IO_rea
 0fa0 645f656e 64005f5a 4e537431 355f5f65  d_end._ZNSt15__e
 0fb0 78636570 74696f6e 5f707472 31336578  xception_ptr13ex
 0fc0 63657074 696f6e5f 70747243 3445524b  ception_ptrC4ERK
 0fd0 53305f00 5f5f7536 5f616464 72313600  S0_.__u6_addr16.
 0fe0 75696e74 33325f74 005f6669 6c656e6f  uint32_t._fileno
 0ff0 00726563 65697665 72005f5a 4e537431  .receiver._ZNSt1
 1000 355f5f65 78636570 74696f6e 5f707472  5__exception_ptr
 1010 31336578 63657074 696f6e5f 70747231  13exception_ptr1
 1020 305f4d5f 72656c65 61736545 76005f5a  0_M_releaseEv._Z
 1030 4e537431 355f5f65 78636570 74696f6e  NSt15__exception
 1040 5f707472 31336578 63657074 696f6e5f  _ptr13exception_
 1050 70747244 34457600 5f5a4e33 444a4934  ptrD4Ev._ZN3DJI4
 1060 4f53444b 364c696e 6b657244 32457600  OSDK6LinkerD2Ev.
 1070 4f53444b 5f4c4f47 4745525f 434f4e53  OSDK_LOGGER_CONS
 1080 4f4c455f 4c4f475f 4c455645 4c5f5741  OLE_LOG_LEVEL_WA
 1090 524e494e 47005f5a 4e537431 355f5f65  RNING._ZNSt15__e
 10a0 78636570 74696f6e 5f707472 31336578  xception_ptr13ex
 10b0 63657074 696f6e5f 70747243 34454f53  ception_ptrC4EOS
 10c0 305f0073 686f7274 20756e73 69676e65  0_.short unsigne
 10d0 6420696e 74007374 646f7574 00657863  d int.stdout.exc
 10e0 65707469 6f6e5f70 7472005f 5a4e3344  eption_ptr._ZN3D
 10f0 4a49344f 53444b36 4c696e6b 65723133  JI4OSDK6Linker13
 1100 69735561 7274506c 75676765 64457600  isUartPluggedEv.
 1110 5553425f 42554c4b 5f414456 414e4345  USB_BULK_ADVANCE
 1120 445f5345 4e53494e 475f4348 414e4e45  D_SENSING_CHANNE
 1130 4c5f4944 005f494f 5f777269 74655f70  L_ID._IO_write_p
 1140 74720075 73657244 61746100 5f5a4e33  tr.userData._ZN3
 1150 444a4934 4f53444b 364c696e 6b657231  DJI4OSDK6Linker1
 1160 34616464 55617274 4368616e 6e656c45  4addUartChannelE
 1170 504b636a 3135455f 4368616e 6e656c49  PKcj15E_ChannelI
 1180 44547970 65003135 455f4368 616e6e65  DType.15E_Channe
 1190 6c494454 79706500 455f5265 6376436d  lIDType.E_RecvCm
 11a0 6448616e 646c654c 6973744d 61736b00  dHandleListMask.
 11b0 545f436d 64496e66 6f005f5f 696e5f63  T_CmdInfo.__in_c
 11c0 68726700 4f53444b 00646566 61756c74  hrg.OSDK.default
 11d0 53656e64 65724964 005f5a4e 53743135  SenderId._ZNSt15
 11e0 5f5f6578 63657074 696f6e5f 70747231  __exception_ptr1
 11f0 33657863 65707469 6f6e5f70 7472395f  3exception_ptr9_
 1200 4d5f6164 64726566 4576005f 5f75365f  M_addrefEv.__u6_
 1210 61646472 3332004f 53444b5f 53544154  addr32.OSDK_STAT
 1220 5f4f4b00 5f5a4e33 444a4934 4f53444b  _OK._ZN3DJI4OSDK
 1230 364c696e 6b657236 7365744b 65794550  6Linker6setKeyEP
 1240 4b63005f 5a4e3344 4a49344f 53444b36  Kc._ZN3DJI4OSDK6
 1250 4c696e6b 65723236 64657374 726f7941  Linker26destroyA
 1260 6476616e 63656453 656e7369 6e675461  dvancedSensingTa
 1270 736b4576 00637265 61746541 636b496e  skEv.createAckIn
 1280 666f0032 33455f52 65637643 6d644861  fo.23E_RecvCmdHa
 1290 6e646c65 4c697374 4d61736b 00726563  ndleListMask.rec
 12a0 76446174 61427566 66007761 69744163  vDataBuff.waitAc
 12b0 6b497465 6d4d7574 6578005f 5a4e3344  kItemMutex._ZN3D
 12c0 4a49344f 53444b36 4c696e6b 65723873  JI4OSDK6Linker8s
 12d0 656e6453 796e6345 50385f63 6d64496e  endSyncEP8_cmdIn
 12e0 666f504b 6853335f 50686a74 00737973  foPKhS3_Phjt.sys
 12f0 5f657272 6c697374 005f5f69 6e365f75  _errlist.__in6_u
 1300 00                                   .               
Contents of section .data.rel.local.DW.ref.__gxx_personality_v0:
 0000 00000000 00000000                    ........        
Contents of section .comment:
 0000 00474343 3a202855 62756e74 7520372e  .GCC: (Ubuntu 7.
 0010 352e302d 33756275 6e747531 7e31382e  5.0-3ubuntu1~18.
 0020 30342920 372e352e 3000               04) 7.5.0.      
Contents of section .eh_frame:
 0000 14000000 00000000 017a5200 01781001  .........zR..x..
 0010 1b0c0708 90010000 1c000000 1c000000  ................
 0020 00000000 2a000000 00410e10 8602430d  ....*....A....C.
 0030 06650c07 08000000 1c000000 00000000  .e..............
 0040 017a504c 52000178 10079b00 0000001b  .zPLR..x........
 0050 1b0c0708 90010000 20000000 24000000  ........ ...$...
 0060 00000000 1b000000 04000000 00410e10  .............A..
 0070 8602430d 06560c07 08000000 1c000000  ..C..V..........
 0080 80000000 00000000 e5000000 00410e10  .............A..
 0090 8602430d 0602e00c 07080000 1c000000  ..C.............
 00a0 a0000000 00000000 2a000000 00410e10  ........*....A..
 00b0 8602430d 06650c07 08000000 1c000000  ..C..e..........
 00c0 c0000000 00000000 12000000 00410e10  .............A..
 00d0 8602430d 064d0c07 08000000 1c000000  ..C..M..........
 00e0 e0000000 00000000 12000000 00410e10  .............A..
 00f0 8602430d 064d0c07 08000000 1c000000  ..C..M..........
 0100 00010000 00000000 65000000 00410e10  ........e....A..
 0110 8602430d 0602600c 07080000 1c000000  ..C...`.........
 0120 20010000 00000000 5a000000 00410e10   .......Z....A..
 0130 8602430d 0602550c 07080000 20000000  ..C...U..... ...
 0140 40010000 00000000 68000000 00410e10  @.......h....A..
 0150 8602430d 06458303 025e0c07 08000000  ..C..E...^......
 0160 20000000 64010000 00000000 67000000   ...d.......g...
 0170 00410e10 8602430d 06458303 025d0c07  .A....C..E...]..
 0180 08000000 1c000000 88010000 00000000  ................
 0190 1f000000 00410e10 8602430d 065a0c07  .....A....C..Z..
 01a0 08000000 1c000000 a8010000 00000000  ................
 01b0 1a000000 00410e10 8602430d 06550c07  .....A....C..U..
 01c0 08000000 1c000000 c8010000 00000000  ................
 01d0 11000000 00410e10 8602430d 064c0c07  .....A....C..L..
 01e0 08000000 1c000000 e8010000 00000000  ................
 01f0 29000000 00410e10 8602430d 06640c07  )....A....C..d..
 0200 08000000 1c000000 08020000 00000000  ................
 0210 33000000 00410e10 8602430d 066e0c07  3....A....C..n..
 0220 08000000 1c000000 28020000 00000000  ........(.......
 0230 33000000 00410e10 8602430d 066e0c07  3....A....C..n..
 0240 08000000 1c000000 48020000 00000000  ........H.......
 0250 1d000000 00410e10 8602430d 06580c07  .....A....C..X..
 0260 08000000 1c000000 68020000 00000000  ........h.......
 0270 1d000000 00410e10 8602430d 06580c07  .....A....C..X..
 0280 08000000 1c000000 88020000 00000000  ................
 0290 1d000000 00410e10 8602430d 06580c07  .....A....C..X..
 02a0 08000000 20000000 a8020000 00000000  .... ...........
 02b0 1d000000 00410e10 8602430d 06580c07  .....A....C..X..
 02c0 08000000 00000000                    ........        

Disassembly of section .text:

0000000000000000 <DJI::OSDK::Linker::Linker(unsigned char)>:
   0:	55                   	push   %rbp
   1:	48 89 e5             	mov    %rsp,%rbp
   4:	48 89 7d f8          	mov    %rdi,-0x8(%rbp)
   8:	89 f0                	mov    %esi,%eax
   a:	88 45 f4             	mov    %al,-0xc(%rbp)
   d:	48 8b 45 f8          	mov    -0x8(%rbp),%rax
  11:	0f b6 55 f4          	movzbl -0xc(%rbp),%edx
  15:	88 10                	mov    %dl,(%rax)
  17:	48 8b 45 f8          	mov    -0x8(%rbp),%rax
  1b:	c6 40 01 00          	movb   $0x0,0x1(%rax)
  1f:	48 8b 45 f8          	mov    -0x8(%rbp),%rax
  23:	c6 40 02 00          	movb   $0x0,0x2(%rax)
  27:	90                   	nop
  28:	5d                   	pop    %rbp
  29:	c3                   	retq   

000000000000002a <DJI::OSDK::Linker::~Linker()>:
  2a:	55                   	push   %rbp
  2b:	48 89 e5             	mov    %rsp,%rbp
  2e:	48 83 ec 10          	sub    $0x10,%rsp
  32:	48 89 7d f8          	mov    %rdi,-0x8(%rbp)
  36:	48 8b 45 f8          	mov    -0x8(%rbp),%rax
  3a:	48 89 c7             	mov    %rax,%rdi
  3d:	e8 00 00 00 00       	callq  42 <DJI::OSDK::Linker::~Linker()+0x18>
  42:	90                   	nop
  43:	c9                   	leaveq 
  44:	c3                   	retq   
  45:	90                   	nop

0000000000000046 <DJI::OSDK::Linker::init()>:
  46:	55                   	push   %rbp
  47:	48 89 e5             	mov    %rsp,%rbp
  4a:	48 83 ec 20          	sub    $0x20,%rsp
  4e:	48 89 7d e8          	mov    %rdi,-0x18(%rbp)
  52:	e8 00 00 00 00       	callq  57 <DJI::OSDK::Linker::init()+0x11>
  57:	89 45 fc             	mov    %eax,-0x4(%rbp)
  5a:	83 7d fc 00          	cmpl   $0x0,-0x4(%rbp)
  5e:	74 3a                	je     9a <DJI::OSDK::Linker::init()+0x54>
  60:	8b 45 fc             	mov    -0x4(%rbp),%eax
  63:	41 89 c1             	mov    %eax,%r9d
  66:	41 b8 38 00 00 00    	mov    $0x38,%r8d
  6c:	48 8d 0d 00 00 00 00 	lea    0x0(%rip),%rcx        # 73 <DJI::OSDK::Linker::init()+0x2d>
  73:	48 8d 15 00 00 00 00 	lea    0x0(%rip),%rdx        # 7a <DJI::OSDK::Linker::init()+0x34>
  7a:	be 02 00 00 00       	mov    $0x2,%esi
  7f:	48 8d 3d 00 00 00 00 	lea    0x0(%rip),%rdi        # 86 <DJI::OSDK::Linker::init()+0x40>
  86:	b8 00 00 00 00       	mov    $0x0,%eax
  8b:	e8 00 00 00 00       	callq  90 <DJI::OSDK::Linker::init()+0x4a>
  90:	b8 00 00 00 00       	mov    $0x0,%eax
  95:	e9 8f 00 00 00       	jmpq   129 <DJI::OSDK::Linker::init()+0xe3>
  9a:	e8 00 00 00 00       	callq  9f <DJI::OSDK::Linker::init()+0x59>
  9f:	89 45 fc             	mov    %eax,-0x4(%rbp)
  a2:	83 7d fc 00          	cmpl   $0x0,-0x4(%rbp)
  a6:	74 37                	je     df <DJI::OSDK::Linker::init()+0x99>
  a8:	8b 45 fc             	mov    -0x4(%rbp),%eax
  ab:	41 89 c1             	mov    %eax,%r9d
  ae:	41 b8 3e 00 00 00    	mov    $0x3e,%r8d
  b4:	48 8d 0d 00 00 00 00 	lea    0x0(%rip),%rcx        # bb <DJI::OSDK::Linker::init()+0x75>
  bb:	48 8d 15 00 00 00 00 	lea    0x0(%rip),%rdx        # c2 <DJI::OSDK::Linker::init()+0x7c>
  c2:	be 02 00 00 00       	mov    $0x2,%esi
  c7:	48 8d 3d 00 00 00 00 	lea    0x0(%rip),%rdi        # ce <DJI::OSDK::Linker::init()+0x88>
  ce:	b8 00 00 00 00       	mov    $0x0,%eax
  d3:	e8 00 00 00 00       	callq  d8 <DJI::OSDK::Linker::init()+0x92>
  d8:	b8 00 00 00 00       	mov    $0x0,%eax
  dd:	eb 4a                	jmp    129 <DJI::OSDK::Linker::init()+0xe3>
  df:	e8 00 00 00 00       	callq  e4 <DJI::OSDK::Linker::init()+0x9e>
  e4:	89 45 fc             	mov    %eax,-0x4(%rbp)
  e7:	83 7d fc 00          	cmpl   $0x0,-0x4(%rbp)
  eb:	74 37                	je     124 <DJI::OSDK::Linker::init()+0xde>
  ed:	8b 45 fc             	mov    -0x4(%rbp),%eax
  f0:	41 89 c1             	mov    %eax,%r9d
  f3:	41 b8 44 00 00 00    	mov    $0x44,%r8d
  f9:	48 8d 0d 00 00 00 00 	lea    0x0(%rip),%rcx        # 100 <DJI::OSDK::Linker::init()+0xba>
 100:	48 8d 15 00 00 00 00 	lea    0x0(%rip),%rdx        # 107 <DJI::OSDK::Linker::init()+0xc1>
 107:	be 02 00 00 00       	mov    $0x2,%esi
 10c:	48 8d 3d 00 00 00 00 	lea    0x0(%rip),%rdi        # 113 <DJI::OSDK::Linker::init()+0xcd>
 113:	b8 00 00 00 00       	mov    $0x0,%eax
 118:	e8 00 00 00 00       	callq  11d <DJI::OSDK::Linker::init()+0xd7>
 11d:	b8 00 00 00 00       	mov    $0x0,%eax
 122:	eb 05                	jmp    129 <DJI::OSDK::Linker::init()+0xe3>
 124:	b8 01 00 00 00       	mov    $0x1,%eax
 129:	c9                   	leaveq 
 12a:	c3                   	retq   
 12b:	90                   	nop

000000000000012c <DJI::OSDK::Linker::deinit()>:
 12c:	55                   	push   %rbp
 12d:	48 89 e5             	mov    %rsp,%rbp
 130:	48 83 ec 10          	sub    $0x10,%rsp
 134:	48 89 7d f8          	mov    %rdi,-0x8(%rbp)
 138:	e8 00 00 00 00       	callq  13d <DJI::OSDK::Linker::deinit()+0x11>
 13d:	48 89 c7             	mov    %rax,%rdi
 140:	e8 00 00 00 00       	callq  145 <DJI::OSDK::Linker::deinit()+0x19>
 145:	e8 00 00 00 00       	callq  14a <DJI::OSDK::Linker::deinit()+0x1e>
 14a:	e8 00 00 00 00       	callq  14f <DJI::OSDK::Linker::deinit()+0x23>
 14f:	b8 01 00 00 00       	mov    $0x1,%eax
 154:	c9                   	leaveq 
 155:	c3                   	retq   

0000000000000156 <DJI::OSDK::Linker::isUartPlugged()>:
 156:	55                   	push   %rbp
 157:	48 89 e5             	mov    %rsp,%rbp
 15a:	48 89 7d f8          	mov    %rdi,-0x8(%rbp)
 15e:	48 8b 45 f8          	mov    -0x8(%rbp),%rax
 162:	0f b6 40 01          	movzbl 0x1(%rax),%eax
 166:	5d                   	pop    %rbp
 167:	c3                   	retq   

0000000000000168 <DJI::OSDK::Linker::isUSBPlugged()>:
 168:	55                   	push   %rbp
 169:	48 89 e5             	mov    %rsp,%rbp
 16c:	48 89 7d f8          	mov    %rdi,-0x8(%rbp)
 170:	48 8b 45 f8          	mov    -0x8(%rbp),%rax
 174:	0f b6 40 02          	movzbl 0x2(%rax),%eax
 178:	5d                   	pop    %rbp
 179:	c3                   	retq   

000000000000017a <DJI::OSDK::Linker::addUartChannel(char const*, unsigned int, E_ChannelIDType)>:
 17a:	55                   	push   %rbp
 17b:	48 89 e5             	mov    %rsp,%rbp
 17e:	48 83 ec 30          	sub    $0x30,%rsp
 182:	48 89 7d e8          	mov    %rdi,-0x18(%rbp)
 186:	48 89 75 e0          	mov    %rsi,-0x20(%rbp)
 18a:	89 55 dc             	mov    %edx,-0x24(%rbp)
 18d:	89 4d d8             	mov    %ecx,-0x28(%rbp)
 190:	8b 55 d8             	mov    -0x28(%rbp),%edx
 193:	8b 4d dc             	mov    -0x24(%rbp),%ecx
 196:	48 8b 45 e0          	mov    -0x20(%rbp),%rax
 19a:	89 ce                	mov    %ecx,%esi
 19c:	48 89 c7             	mov    %rax,%rdi
 19f:	e8 00 00 00 00       	callq  1a4 <DJI::OSDK::Linker::addUartChannel(char const*, unsigned int, E_ChannelIDType)+0x2a>
 1a4:	89 45 fc             	mov    %eax,-0x4(%rbp)
 1a7:	83 7d fc 00          	cmpl   $0x0,-0x4(%rbp)
 1ab:	0f 94 c0             	sete   %al
 1ae:	88 45 fb             	mov    %al,-0x5(%rbp)
 1b1:	81 7d d8 00 01 01 00 	cmpl   $0x10100,-0x28(%rbp)
 1b8:	75 0b                	jne    1c5 <DJI::OSDK::Linker::addUartChannel(char const*, unsigned int, E_ChannelIDType)+0x4b>
 1ba:	48 8b 45 e8          	mov    -0x18(%rbp),%rax
 1be:	0f b6 55 fb          	movzbl -0x5(%rbp),%edx
 1c2:	88 50 01             	mov    %dl,0x1(%rax)
 1c5:	81 7d d8 00 02 01 00 	cmpl   $0x10200,-0x28(%rbp)
 1cc:	75 0b                	jne    1d9 <DJI::OSDK::Linker::addUartChannel(char const*, unsigned int, E_ChannelIDType)+0x5f>
 1ce:	48 8b 45 e8          	mov    -0x18(%rbp),%rax
 1d2:	0f b6 55 fb          	movzbl -0x5(%rbp),%edx
 1d6:	88 50 02             	mov    %dl,0x2(%rax)
 1d9:	0f b6 45 fb          	movzbl -0x5(%rbp),%eax
 1dd:	c9                   	leaveq 
 1de:	c3                   	retq   
 1df:	90                   	nop

00000000000001e0 <DJI::OSDK::Linker::addUSBBulkChannel(unsigned short, unsigned short, unsigned short, unsigned short, unsigned short, E_ChannelIDType)>:
 1e0:	55                   	push   %rbp
 1e1:	48 89 e5             	mov    %rsp,%rbp
 1e4:	48 83 ec 30          	sub    $0x30,%rsp
 1e8:	48 89 7d e8          	mov    %rdi,-0x18(%rbp)
 1ec:	89 c8                	mov    %ecx,%eax
 1ee:	44 89 cf             	mov    %r9d,%edi
 1f1:	89 f1                	mov    %esi,%ecx
 1f3:	66 89 4d e4          	mov    %cx,-0x1c(%rbp)
 1f7:	66 89 55 e0          	mov    %dx,-0x20(%rbp)
 1fb:	66 89 45 dc          	mov    %ax,-0x24(%rbp)
 1ff:	44 89 c0             	mov    %r8d,%eax
 202:	66 89 45 d8          	mov    %ax,-0x28(%rbp)
 206:	89 f8                	mov    %edi,%eax
 208:	66 89 45 d4          	mov    %ax,-0x2c(%rbp)
 20c:	0f b7 7d d4          	movzwl -0x2c(%rbp),%edi
 210:	0f b7 4d d8          	movzwl -0x28(%rbp),%ecx
 214:	0f b7 55 dc          	movzwl -0x24(%rbp),%edx
 218:	0f b7 75 e0          	movzwl -0x20(%rbp),%esi
 21c:	0f b7 45 e4          	movzwl -0x1c(%rbp),%eax
 220:	44 8b 4d 10          	mov    0x10(%rbp),%r9d
 224:	41 89 f8             	mov    %edi,%r8d
 227:	89 c7                	mov    %eax,%edi
 229:	e8 00 00 00 00       	callq  22e <DJI::OSDK::Linker::addUSBBulkChannel(unsigned short, unsigned short, unsigned short, unsigned short, unsigned short, E_ChannelIDType)+0x4e>
 22e:	89 45 fc             	mov    %eax,-0x4(%rbp)
 231:	83 7d fc 00          	cmpl   $0x0,-0x4(%rbp)
 235:	0f 94 c0             	sete   %al
 238:	c9                   	leaveq 
 239:	c3                   	retq   

000000000000023a <DJI::OSDK::Linker::sendAsync(_cmdInfo*, unsigned char const*, void (*)(_cmdInfo const*, unsigned char const*, void*, E_OsdkStat), void*, unsigned int, unsigned short)>:
 23a:	55                   	push   %rbp
 23b:	48 89 e5             	mov    %rsp,%rbp
 23e:	53                   	push   %rbx
 23f:	48 83 ec 38          	sub    $0x38,%rsp
 243:	48 89 7d e8          	mov    %rdi,-0x18(%rbp)
 247:	48 89 75 e0          	mov    %rsi,-0x20(%rbp)
 24b:	48 89 55 d8          	mov    %rdx,-0x28(%rbp)
 24f:	48 89 4d d0          	mov    %rcx,-0x30(%rbp)
 253:	4c 89 45 c8          	mov    %r8,-0x38(%rbp)
 257:	44 89 4d c4          	mov    %r9d,-0x3c(%rbp)
 25b:	8b 45 10             	mov    0x10(%rbp),%eax
 25e:	66 89 45 c0          	mov    %ax,-0x40(%rbp)
 262:	0f b7 5d c0          	movzwl -0x40(%rbp),%ebx
 266:	e8 00 00 00 00       	callq  26b <DJI::OSDK::Linker::sendAsync(_cmdInfo*, unsigned char const*, void (*)(_cmdInfo const*, unsigned char const*, void*, E_OsdkStat), void*, unsigned int, unsigned short)+0x31>
 26b:	49 89 c2             	mov    %rax,%r10
 26e:	8b 7d c4             	mov    -0x3c(%rbp),%edi
 271:	48 8b 75 c8          	mov    -0x38(%rbp),%rsi
 275:	48 8b 4d d0          	mov    -0x30(%rbp),%rcx
 279:	48 8b 55 d8          	mov    -0x28(%rbp),%rdx
 27d:	48 8b 45 e0          	mov    -0x20(%rbp),%rax
 281:	48 83 ec 08          	sub    $0x8,%rsp
 285:	53                   	push   %rbx
 286:	41 89 f9             	mov    %edi,%r9d
 289:	49 89 f0             	mov    %rsi,%r8
 28c:	48 89 c6             	mov    %rax,%rsi
 28f:	4c 89 d7             	mov    %r10,%rdi
 292:	e8 00 00 00 00       	callq  297 <DJI::OSDK::Linker::sendAsync(_cmdInfo*, unsigned char const*, void (*)(_cmdInfo const*, unsigned char const*, void*, E_OsdkStat), void*, unsigned int, unsigned short)+0x5d>
 297:	48 83 c4 10          	add    $0x10,%rsp
 29b:	90                   	nop
 29c:	48 8b 5d f8          	mov    -0x8(%rbp),%rbx
 2a0:	c9                   	leaveq 
 2a1:	c3                   	retq   

00000000000002a2 <DJI::OSDK::Linker::sendSync(_cmdInfo*, unsigned char const*, _cmdInfo*, unsigned char*, unsigned int, unsigned short)>:
 2a2:	55                   	push   %rbp
 2a3:	48 89 e5             	mov    %rsp,%rbp
 2a6:	53                   	push   %rbx
 2a7:	48 83 ec 38          	sub    $0x38,%rsp
 2ab:	48 89 7d e8          	mov    %rdi,-0x18(%rbp)
 2af:	48 89 75 e0          	mov    %rsi,-0x20(%rbp)
 2b3:	48 89 55 d8          	mov    %rdx,-0x28(%rbp)
 2b7:	48 89 4d d0          	mov    %rcx,-0x30(%rbp)
 2bb:	4c 89 45 c8          	mov    %r8,-0x38(%rbp)
 2bf:	44 89 4d c4          	mov    %r9d,-0x3c(%rbp)
 2c3:	8b 45 10             	mov    0x10(%rbp),%eax
 2c6:	66 89 45 c0          	mov    %ax,-0x40(%rbp)
 2ca:	0f b7 5d c0          	movzwl -0x40(%rbp),%ebx
 2ce:	e8 00 00 00 00       	callq  2d3 <DJI::OSDK::Linker::sendSync(_cmdInfo*, unsigned char const*, _cmdInfo*, unsigned char*, unsigned int, unsigned short)+0x31>
 2d3:	49 89 c2             	mov    %rax,%r10
 2d6:	8b 7d c4             	mov    -0x3c(%rbp),%edi
 2d9:	48 8b 75 c8          	mov    -0x38(%rbp),%rsi
 2dd:	48 8b 4d d0          	mov    -0x30(%rbp),%rcx
 2e1:	48 8b 55 d8          	mov    -0x28(%rbp),%rdx
 2e5:	48 8b 45 e0          	mov    -0x20(%rbp),%rax
 2e9:	48 83 ec 08          	sub    $0x8,%rsp
 2ed:	53                   	push   %rbx
 2ee:	41 89 f9             	mov    %edi,%r9d
 2f1:	49 89 f0             	mov    %rsi,%r8
 2f4:	48 89 c6             	mov    %rax,%rsi
 2f7:	4c 89 d7             	mov    %r10,%rdi
 2fa:	e8 00 00 00 00       	callq  2ff <DJI::OSDK::Linker::sendSync(_cmdInfo*, unsigned char const*, _cmdInfo*, unsigned char*, unsigned int, unsigned short)+0x5d>
 2ff:	48 83 c4 10          	add    $0x10,%rsp
 303:	48 8b 5d f8          	mov    -0x8(%rbp),%rbx
 307:	c9                   	leaveq 
 308:	c3                   	retq   
 309:	90                   	nop

000000000000030a <DJI::OSDK::Linker::setKey(char const*)>:
 30a:	55                   	push   %rbp
 30b:	48 89 e5             	mov    %rsp,%rbp
 30e:	48 83 ec 10          	sub    $0x10,%rsp
 312:	48 89 7d f8          	mov    %rdi,-0x8(%rbp)
 316:	48 89 75 f0          	mov    %rsi,-0x10(%rbp)
 31a:	48 8b 45 f0          	mov    -0x10(%rbp),%rax
 31e:	48 89 c7             	mov    %rax,%rdi
 321:	e8 00 00 00 00       	callq  326 <DJI::OSDK::Linker::setKey(char const*)+0x1c>
 326:	90                   	nop
 327:	c9                   	leaveq 
 328:	c3                   	retq   
 329:	90                   	nop

000000000000032a <DJI::OSDK::Linker::setSenderId(unsigned char)>:
 32a:	55                   	push   %rbp
 32b:	48 89 e5             	mov    %rsp,%rbp
 32e:	48 89 7d f8          	mov    %rdi,-0x8(%rbp)
 332:	89 f0                	mov    %esi,%eax
 334:	88 45 f4             	mov    %al,-0xc(%rbp)
 337:	48 8b 45 f8          	mov    -0x8(%rbp),%rax
 33b:	0f b6 55 f4          	movzbl -0xc(%rbp),%edx
 33f:	88 10                	mov    %dl,(%rax)
 341:	90                   	nop
 342:	5d                   	pop    %rbp
 343:	c3                   	retq   

0000000000000344 <DJI::OSDK::Linker::getLocalSenderId()>:
 344:	55                   	push   %rbp
 345:	48 89 e5             	mov    %rsp,%rbp
 348:	48 89 7d f8          	mov    %rdi,-0x8(%rbp)
 34c:	48 8b 45 f8          	mov    -0x8(%rbp),%rax
 350:	0f b6 00             	movzbl (%rax),%eax
 353:	5d                   	pop    %rbp
 354:	c3                   	retq   
 355:	90                   	nop

0000000000000356 <DJI::OSDK::Linker::send(_cmdInfo*, unsigned char const*)>:
 356:	55                   	push   %rbp
 357:	48 89 e5             	mov    %rsp,%rbp
 35a:	48 83 ec 20          	sub    $0x20,%rsp
 35e:	48 89 7d f8          	mov    %rdi,-0x8(%rbp)
 362:	48 89 75 f0          	mov    %rsi,-0x10(%rbp)
 366:	48 89 55 e8          	mov    %rdx,-0x18(%rbp)
 36a:	48 8b 55 e8          	mov    -0x18(%rbp),%rdx
 36e:	48 8b 45 f0          	mov    -0x10(%rbp),%rax
 372:	48 89 d6             	mov    %rdx,%rsi
 375:	48 89 c7             	mov    %rax,%rdi
 378:	e8 00 00 00 00       	callq  37d <DJI::OSDK::Linker::send(_cmdInfo*, unsigned char const*)+0x27>
 37d:	c9                   	leaveq 
 37e:	c3                   	retq   
 37f:	90                   	nop

0000000000000380 <DJI::OSDK::Linker::sendAck(_cmdInfo const*, unsigned char const*, unsigned short)>:
 380:	55                   	push   %rbp
 381:	48 89 e5             	mov    %rsp,%rbp
 384:	48 83 ec 20          	sub    $0x20,%rsp
 388:	48 89 7d f8          	mov    %rdi,-0x8(%rbp)
 38c:	48 89 75 f0          	mov    %rsi,-0x10(%rbp)
 390:	48 89 55 e8          	mov    %rdx,-0x18(%rbp)
 394:	89 c8                	mov    %ecx,%eax
 396:	66 89 45 e4          	mov    %ax,-0x1c(%rbp)
 39a:	0f b7 55 e4          	movzwl -0x1c(%rbp),%edx
 39e:	48 8b 4d e8          	mov    -0x18(%rbp),%rcx
 3a2:	48 8b 45 f0          	mov    -0x10(%rbp),%rax
 3a6:	48 89 ce             	mov    %rcx,%rsi
 3a9:	48 89 c7             	mov    %rax,%rdi
 3ac:	e8 00 00 00 00       	callq  3b1 <DJI::OSDK::Linker::sendAck(_cmdInfo const*, unsigned char const*, unsigned short)+0x31>
 3b1:	c9                   	leaveq 
 3b2:	c3                   	retq   
 3b3:	90                   	nop

00000000000003b4 <DJI::OSDK::Linker::registerCmdHandler(T_RecvCmdHandle*)>:
 3b4:	55                   	push   %rbp
 3b5:	48 89 e5             	mov    %rsp,%rbp
 3b8:	48 83 ec 20          	sub    $0x20,%rsp
 3bc:	48 89 7d e8          	mov    %rdi,-0x18(%rbp)
 3c0:	48 89 75 e0          	mov    %rsi,-0x20(%rbp)
 3c4:	e8 00 00 00 00       	callq  3c9 <DJI::OSDK::Linker::registerCmdHandler(T_RecvCmdHandle*)+0x15>
 3c9:	48 89 c2             	mov    %rax,%rdx
 3cc:	48 8b 45 e0          	mov    -0x20(%rbp),%rax
 3d0:	48 89 c6             	mov    %rax,%rsi
 3d3:	48 89 d7             	mov    %rdx,%rdi
 3d6:	e8 00 00 00 00       	callq  3db <DJI::OSDK::Linker::registerCmdHandler(T_RecvCmdHandle*)+0x27>
 3db:	89 45 fc             	mov    %eax,-0x4(%rbp)
 3de:	83 7d fc 00          	cmpl   $0x0,-0x4(%rbp)
 3e2:	0f 94 c0             	sete   %al
 3e5:	c9                   	leaveq 
 3e6:	c3                   	retq   
 3e7:	90                   	nop

00000000000003e8 <DJI::OSDK::Linker::createLiveViewTask()>:
 3e8:	55                   	push   %rbp
 3e9:	48 89 e5             	mov    %rsp,%rbp
 3ec:	48 83 ec 20          	sub    $0x20,%rsp
 3f0:	48 89 7d e8          	mov    %rdi,-0x18(%rbp)
 3f4:	e8 00 00 00 00       	callq  3f9 <DJI::OSDK::Linker::createLiveViewTask()+0x11>
 3f9:	89 45 fc             	mov    %eax,-0x4(%rbp)
 3fc:	83 7d fc 00          	cmpl   $0x0,-0x4(%rbp)
 400:	0f 94 c0             	sete   %al
 403:	c9                   	leaveq 
 404:	c3                   	retq   
 405:	90                   	nop

0000000000000406 <DJI::OSDK::Linker::destroyLiveViewTask()>:
 406:	55                   	push   %rbp
 407:	48 89 e5             	mov    %rsp,%rbp
 40a:	48 83 ec 20          	sub    $0x20,%rsp
 40e:	48 89 7d e8          	mov    %rdi,-0x18(%rbp)
 412:	e8 00 00 00 00       	callq  417 <DJI::OSDK::Linker::destroyLiveViewTask()+0x11>
 417:	89 45 fc             	mov    %eax,-0x4(%rbp)
 41a:	83 7d fc 00          	cmpl   $0x0,-0x4(%rbp)
 41e:	0f 94 c0             	sete   %al
 421:	c9                   	leaveq 
 422:	c3                   	retq   
 423:	90                   	nop

0000000000000424 <DJI::OSDK::Linker::createAdvancedSensingTask()>:
 424:	55                   	push   %rbp
 425:	48 89 e5             	mov    %rsp,%rbp
 428:	48 83 ec 20          	sub    $0x20,%rsp
 42c:	48 89 7d e8          	mov    %rdi,-0x18(%rbp)
 430:	e8 00 00 00 00       	callq  435 <DJI::OSDK::Linker::createAdvancedSensingTask()+0x11>
 435:	89 45 fc             	mov    %eax,-0x4(%rbp)
 438:	83 7d fc 00          	cmpl   $0x0,-0x4(%rbp)
 43c:	0f 94 c0             	sete   %al
 43f:	c9                   	leaveq 
 440:	c3                   	retq   
 441:	90                   	nop

0000000000000442 <DJI::OSDK::Linker::destroyAdvancedSensingTask()>:
 442:	55                   	push   %rbp
 443:	48 89 e5             	mov    %rsp,%rbp
 446:	48 83 ec 20          	sub    $0x20,%rsp
 44a:	48 89 7d e8          	mov    %rdi,-0x18(%rbp)
 44e:	e8 00 00 00 00       	callq  453 <DJI::OSDK::Linker::destroyAdvancedSensingTask()+0x11>
 453:	89 45 fc             	mov    %eax,-0x4(%rbp)
 456:	83 7d fc 00          	cmpl   $0x0,-0x4(%rbp)
 45a:	0f 94 c0             	sete   %al
 45d:	c9                   	leaveq 
 45e:	c3                   	retq   
